ARM GAS  C:\Users\gstoll\AppData\Local\Temp\ccuKDBUb.s 			page 1


   1              		.syntax unified
   2              		.cpu cortex-m3
   3              		.fpu softvfp
   4              		.eabi_attribute 20, 1
   5              		.eabi_attribute 21, 1
   6              		.eabi_attribute 23, 3
   7              		.eabi_attribute 24, 1
   8              		.eabi_attribute 25, 1
   9              		.eabi_attribute 26, 1
  10              		.eabi_attribute 30, 6
  11              		.eabi_attribute 34, 1
  12              		.eabi_attribute 18, 4
  13              		.thumb
  14              		.file	"functions.c"
  15              		.text
  16              	.Ltext0:
  17              		.cfi_sections	.debug_frame
  18              		.comm	accelData,10,4
  19              		.section	.rodata
  20              		.align	2
  21              	.LC0:
  22 0000 25642025 		.ascii	"%d %d %d     \000"
  22      64202564 
  22      20202020 
  22      2000
  23              		.section	.text.I2C_LCD_print,"ax",%progbits
  24              		.align	2
  25              		.global	I2C_LCD_print
  26              		.thumb
  27              		.thumb_func
  28              		.type	I2C_LCD_print, %function
  29              	I2C_LCD_print:
  30              	.LFB63:
  31              		.file 1 "functions.c"
   1:functions.c   **** /* ========================================
   2:functions.c   ****  *
   3:functions.c   ****  * Copyright YOUR COMPANY, THE YEAR
   4:functions.c   ****  * All Rights Reserved
   5:functions.c   ****  * UNPUBLISHED, LICENSED SOFTWARE.
   6:functions.c   ****  *
   7:functions.c   ****  * CONFIDENTIAL AND PROPRIETARY INFORMATION
   8:functions.c   ****  * WHICH IS THE PROPERTY OF your company.
   9:functions.c   ****  *
  10:functions.c   ****  * ========================================
  11:functions.c   **** */
  12:functions.c   **** #include <stdint.h>
  13:functions.c   **** #include <stdio.h>
  14:functions.c   **** #include <math.h>
  15:functions.c   **** #include "functions.h"
  16:functions.c   **** #include "LiquidCrystal_I2C.h"
  17:functions.c   **** 
  18:functions.c   **** char accelData[10];
  19:functions.c   **** 
  20:functions.c   **** void I2C_LCD_print(uint8_t row, uint8_t column, uint16_t ax, uint16_t ay,uint16_t az){
  32              		.loc 1 20 0
  33              		.cfi_startproc
  34              		@ args = 4, pretend = 0, frame = 8
ARM GAS  C:\Users\gstoll\AppData\Local\Temp\ccuKDBUb.s 			page 2


  35              		@ frame_needed = 1, uses_anonymous_args = 0
  36 0000 90B5     		push	{r4, r7, lr}
  37              		.cfi_def_cfa_offset 12
  38              		.cfi_offset 4, -12
  39              		.cfi_offset 7, -8
  40              		.cfi_offset 14, -4
  41 0002 85B0     		sub	sp, sp, #20
  42              		.cfi_def_cfa_offset 32
  43 0004 02AF     		add	r7, sp, #8
  44              		.cfi_def_cfa 7, 24
  45 0006 0446     		mov	r4, r0
  46 0008 0846     		mov	r0, r1
  47 000a 1146     		mov	r1, r2
  48 000c 1A46     		mov	r2, r3
  49 000e 2346     		mov	r3, r4
  50 0010 FB71     		strb	r3, [r7, #7]
  51 0012 0346     		mov	r3, r0
  52 0014 BB71     		strb	r3, [r7, #6]
  53 0016 0B46     		mov	r3, r1	@ movhi
  54 0018 BB80     		strh	r3, [r7, #4]	@ movhi
  55 001a 1346     		mov	r3, r2	@ movhi
  56 001c 7B80     		strh	r3, [r7, #2]	@ movhi
  21:functions.c   ****     sprintf(accelData,"%d %d %d     ",ax,ay,az); 
  57              		.loc 1 21 0
  58 001e BA88     		ldrh	r2, [r7, #4]
  59 0020 7C88     		ldrh	r4, [r7, #2]
  60 0022 3B8B     		ldrh	r3, [r7, #24]
  61 0024 0093     		str	r3, [sp]
  62 0026 0848     		ldr	r0, .L2
  63 0028 0849     		ldr	r1, .L2+4
  64 002a 2346     		mov	r3, r4
  65 002c FFF7FEFF 		bl	sprintf
  22:functions.c   ****     //clear();
  23:functions.c   ****     setCursor(column,row);
  66              		.loc 1 23 0
  67 0030 BA79     		ldrb	r2, [r7, #6]	@ zero_extendqisi2
  68 0032 FB79     		ldrb	r3, [r7, #7]	@ zero_extendqisi2
  69 0034 1046     		mov	r0, r2
  70 0036 1946     		mov	r1, r3
  71 0038 FFF7FEFF 		bl	setCursor
  24:functions.c   ****     LCD_print(accelData);
  72              		.loc 1 24 0
  73 003c 0248     		ldr	r0, .L2
  74 003e FFF7FEFF 		bl	LCD_print
  25:functions.c   **** }
  75              		.loc 1 25 0
  76 0042 0C37     		adds	r7, r7, #12
  77              		.cfi_def_cfa_offset 12
  78 0044 BD46     		mov	sp, r7
  79              		.cfi_def_cfa_register 13
  80              		@ sp needed
  81 0046 90BD     		pop	{r4, r7, pc}
  82              	.L3:
  83              		.align	2
  84              	.L2:
  85 0048 00000000 		.word	accelData
  86 004c 00000000 		.word	.LC0
ARM GAS  C:\Users\gstoll\AppData\Local\Temp\ccuKDBUb.s 			page 3


  87              		.cfi_endproc
  88              	.LFE63:
  89              		.size	I2C_LCD_print, .-I2C_LCD_print
  90              		.global	__aeabi_i2f
  91              		.global	__aeabi_fdiv
  92              		.global	__aeabi_fsub
  93              		.global	__aeabi_fadd
  94              		.section	.text.ComputeMA,"ax",%progbits
  95              		.align	2
  96              		.global	ComputeMA
  97              		.thumb
  98              		.thumb_func
  99              		.type	ComputeMA, %function
 100              	ComputeMA:
 101              	.LFB64:
  26:functions.c   **** 
  27:functions.c   **** float ComputeMA(float avg, int16_t n, float sample){
 102              		.loc 1 27 0
 103              		.cfi_startproc
 104              		@ args = 0, pretend = 0, frame = 16
 105              		@ frame_needed = 1, uses_anonymous_args = 0
 106 0000 80B5     		push	{r7, lr}
 107              		.cfi_def_cfa_offset 8
 108              		.cfi_offset 7, -8
 109              		.cfi_offset 14, -4
 110 0002 84B0     		sub	sp, sp, #16
 111              		.cfi_def_cfa_offset 24
 112 0004 00AF     		add	r7, sp, #0
 113              		.cfi_def_cfa_register 7
 114 0006 F860     		str	r0, [r7, #12]	@ float
 115 0008 0B46     		mov	r3, r1
 116 000a 7A60     		str	r2, [r7, #4]	@ float
 117 000c 7B81     		strh	r3, [r7, #10]	@ movhi
  28:functions.c   ****     avg -= avg/n;
 118              		.loc 1 28 0
 119 000e B7F90A30 		ldrsh	r3, [r7, #10]
 120 0012 1846     		mov	r0, r3
 121 0014 FFF7FEFF 		bl	__aeabi_i2f
 122 0018 0346     		mov	r3, r0
 123 001a F868     		ldr	r0, [r7, #12]	@ float
 124 001c 1946     		mov	r1, r3
 125 001e FFF7FEFF 		bl	__aeabi_fdiv
 126 0022 0346     		mov	r3, r0
 127 0024 F868     		ldr	r0, [r7, #12]	@ float
 128 0026 1946     		mov	r1, r3
 129 0028 FFF7FEFF 		bl	__aeabi_fsub
 130 002c 0346     		mov	r3, r0
 131 002e FB60     		str	r3, [r7, #12]	@ float
  29:functions.c   ****     avg += sample/n;
 132              		.loc 1 29 0
 133 0030 B7F90A30 		ldrsh	r3, [r7, #10]
 134 0034 1846     		mov	r0, r3
 135 0036 FFF7FEFF 		bl	__aeabi_i2f
 136 003a 0346     		mov	r3, r0
 137 003c 7868     		ldr	r0, [r7, #4]	@ float
 138 003e 1946     		mov	r1, r3
 139 0040 FFF7FEFF 		bl	__aeabi_fdiv
ARM GAS  C:\Users\gstoll\AppData\Local\Temp\ccuKDBUb.s 			page 4


 140 0044 0346     		mov	r3, r0
 141 0046 F868     		ldr	r0, [r7, #12]	@ float
 142 0048 1946     		mov	r1, r3
 143 004a FFF7FEFF 		bl	__aeabi_fadd
 144 004e 0346     		mov	r3, r0
 145 0050 FB60     		str	r3, [r7, #12]	@ float
  30:functions.c   ****     return avg;    
 146              		.loc 1 30 0
 147 0052 FB68     		ldr	r3, [r7, #12]	@ float
  31:functions.c   **** }
 148              		.loc 1 31 0
 149 0054 1846     		mov	r0, r3
 150 0056 1037     		adds	r7, r7, #16
 151              		.cfi_def_cfa_offset 8
 152 0058 BD46     		mov	sp, r7
 153              		.cfi_def_cfa_register 13
 154              		@ sp needed
 155 005a 80BD     		pop	{r7, pc}
 156              		.cfi_endproc
 157              	.LFE64:
 158              		.size	ComputeMA, .-ComputeMA
 159              		.section	.rodata
 160 000e 0000     		.align	2
 161              	.LC3:
 162 0010 72657365 		.ascii	"reset\000"
 162      7400
 163 0016 0000     		.align	2
 164              	.LC4:
 165 0018 73746172 		.ascii	"start\000"
 165      7400
 166 001e 0000     		.align	2
 167              	.LC5:
 168 0020 643A00   		.ascii	"d:\000"
 169 0023 00       		.align	2
 170              	.LC6:
 171 0024 64617461 		.ascii	"data\000"
 171      00
 172 0029 000000   		.align	2
 173              	.LC1:
 174 002c 0A636F6D 		.ascii	"\012commands: \01205,start\01205,reset\01204,data\012"
 174      6D616E64 
 174      733A200A 
 174      30352C73 
 174      74617274 
 175 0052 30352C64 		.ascii	"05,d:###\000"
 175      3A232323 
 175      00
 176 005b 00       		.align	2
 177              	.LC2:
 178 005c 456E7465 		.ascii	"Enter desired depth:\000"
 178      72206465 
 178      73697265 
 178      64206465 
 178      7074683A 
 179              		.section	.text.BT_Process,"ax",%progbits
 180              		.align	2
 181              		.global	BT_Process
ARM GAS  C:\Users\gstoll\AppData\Local\Temp\ccuKDBUb.s 			page 5


 182              		.thumb
 183              		.thumb_func
 184              		.type	BT_Process, %function
 185              	BT_Process:
 186              	.LFB65:
  32:functions.c   **** 
  33:functions.c   **** /* Process an incoming message, only for WAIT, TRANSMIT states, or for a reset of the system */
  34:functions.c   **** int BT_Process(char *RxBuffer, STATES *STATE, int bytes, int *flag, int *reset){
 187              		.loc 1 34 0
 188              		.cfi_startproc
 189              		@ args = 4, pretend = 0, frame = 104
 190              		@ frame_needed = 1, uses_anonymous_args = 0
 191 0000 B0B5     		push	{r4, r5, r7, lr}
 192              		.cfi_def_cfa_offset 16
 193              		.cfi_offset 4, -16
 194              		.cfi_offset 5, -12
 195              		.cfi_offset 7, -8
 196              		.cfi_offset 14, -4
 197 0002 9AB0     		sub	sp, sp, #104
 198              		.cfi_def_cfa_offset 120
 199 0004 00AF     		add	r7, sp, #0
 200              		.cfi_def_cfa_register 7
 201 0006 F860     		str	r0, [r7, #12]
 202 0008 B960     		str	r1, [r7, #8]
 203 000a 7A60     		str	r2, [r7, #4]
 204 000c 3B60     		str	r3, [r7]
  35:functions.c   ****     int i = 0;
 205              		.loc 1 35 0
 206 000e 0023     		movs	r3, #0
 207 0010 7B66     		str	r3, [r7, #100]
  36:functions.c   ****     int ones = 0, tens = 0, hunds = 0;
 208              		.loc 1 36 0
 209 0012 0023     		movs	r3, #0
 210 0014 3B66     		str	r3, [r7, #96]
 211 0016 0023     		movs	r3, #0
 212 0018 FB65     		str	r3, [r7, #92]
 213 001a 0023     		movs	r3, #0
 214 001c BB65     		str	r3, [r7, #88]
  37:functions.c   ****     char commands[COMMANDS_LEN] = COMMANDS;
 215              		.loc 1 37 0
 216 001e 654B     		ldr	r3, .L24
 217 0020 07F12804 		add	r4, r7, #40
 218 0024 1D46     		mov	r5, r3
 219 0026 0FCD     		ldmia	r5!, {r0, r1, r2, r3}
 220 0028 0FC4     		stmia	r4!, {r0, r1, r2, r3}
 221 002a 0FCD     		ldmia	r5!, {r0, r1, r2, r3}
 222 002c 0FC4     		stmia	r4!, {r0, r1, r2, r3}
 223 002e 95E80F00 		ldmia	r5, {r0, r1, r2, r3}
 224 0032 07C4     		stmia	r4!, {r0, r1, r2}
 225 0034 2380     		strh	r3, [r4]	@ movhi
  38:functions.c   ****     char depth[SEND_DEPTH_LEN] = SEND_DEPTH;
 226              		.loc 1 38 0
 227 0036 604B     		ldr	r3, .L24+4
 228 0038 07F11404 		add	r4, r7, #20
 229 003c 1D46     		mov	r5, r3
 230 003e 0FCD     		ldmia	r5!, {r0, r1, r2, r3}
 231 0040 0FC4     		stmia	r4!, {r0, r1, r2, r3}
ARM GAS  C:\Users\gstoll\AppData\Local\Temp\ccuKDBUb.s 			page 6


 232 0042 2B68     		ldr	r3, [r5]
 233 0044 2360     		str	r3, [r4]
  39:functions.c   ****     
  40:functions.c   ****     if (!strncmp(RxBuffer, "reset", 5)){                      // stop/reset program, go back to WAI
 234              		.loc 1 40 0
 235 0046 F868     		ldr	r0, [r7, #12]
 236 0048 5C49     		ldr	r1, .L24+8
 237 004a 0522     		movs	r2, #5
 238 004c FFF7FEFF 		bl	strncmp
 239 0050 0346     		mov	r3, r0
 240 0052 002B     		cmp	r3, #0
 241 0054 06D1     		bne	.L7
  41:functions.c   ****         *STATE = WAIT_TO_LAUNCH;
 242              		.loc 1 41 0
 243 0056 BB68     		ldr	r3, [r7, #8]
 244 0058 0122     		movs	r2, #1
 245 005a 1A70     		strb	r2, [r3]
  42:functions.c   ****         *reset = 1;
 246              		.loc 1 42 0
 247 005c BB6F     		ldr	r3, [r7, #120]
 248 005e 0122     		movs	r2, #1
 249 0060 1A60     		str	r2, [r3]
 250 0062 8AE0     		b	.L8
 251              	.L7:
  43:functions.c   ****     } else if (*STATE == WAIT_TO_LAUNCH && !strncmp(RxBuffer, "start", 5)){ // start the process, a
 252              		.loc 1 43 0
 253 0064 BB68     		ldr	r3, [r7, #8]
 254 0066 1B78     		ldrb	r3, [r3]	@ zero_extendqisi2
 255 0068 012B     		cmp	r3, #1
 256 006a 0BD1     		bne	.L9
 257              		.loc 1 43 0 is_stmt 0 discriminator 1
 258 006c F868     		ldr	r0, [r7, #12]
 259 006e 5449     		ldr	r1, .L24+12
 260 0070 0522     		movs	r2, #5
 261 0072 FFF7FEFF 		bl	strncmp
 262 0076 0346     		mov	r3, r0
 263 0078 002B     		cmp	r3, #0
 264 007a 03D1     		bne	.L9
  44:functions.c   ****         *flag = 1;
 265              		.loc 1 44 0 is_stmt 1
 266 007c 3B68     		ldr	r3, [r7]
 267 007e 0122     		movs	r2, #1
 268 0080 1A60     		str	r2, [r3]
 269 0082 7AE0     		b	.L8
 270              	.L9:
  45:functions.c   ****     } else if (*STATE == WAIT_TO_LAUNCH && !strncmp(RxBuffer, "d:", 2)){
 271              		.loc 1 45 0
 272 0084 BB68     		ldr	r3, [r7, #8]
 273 0086 1B78     		ldrb	r3, [r3]	@ zero_extendqisi2
 274 0088 012B     		cmp	r3, #1
 275 008a 42D1     		bne	.L10
 276              		.loc 1 45 0 is_stmt 0 discriminator 1
 277 008c F868     		ldr	r0, [r7, #12]
 278 008e 4D49     		ldr	r1, .L24+16
 279 0090 0222     		movs	r2, #2
 280 0092 FFF7FEFF 		bl	strncmp
 281 0096 0346     		mov	r3, r0
ARM GAS  C:\Users\gstoll\AppData\Local\Temp\ccuKDBUb.s 			page 7


 282 0098 002B     		cmp	r3, #0
 283 009a 3AD1     		bne	.L10
  46:functions.c   ****         hunds = RxBuffer[2] - 48;
 284              		.loc 1 46 0 is_stmt 1
 285 009c FB68     		ldr	r3, [r7, #12]
 286 009e 0233     		adds	r3, r3, #2
 287 00a0 1B78     		ldrb	r3, [r3]	@ zero_extendqisi2
 288 00a2 303B     		subs	r3, r3, #48
 289 00a4 BB65     		str	r3, [r7, #88]
  47:functions.c   ****         tens = RxBuffer[3] - 48;
 290              		.loc 1 47 0
 291 00a6 FB68     		ldr	r3, [r7, #12]
 292 00a8 0333     		adds	r3, r3, #3
 293 00aa 1B78     		ldrb	r3, [r3]	@ zero_extendqisi2
 294 00ac 303B     		subs	r3, r3, #48
 295 00ae FB65     		str	r3, [r7, #92]
  48:functions.c   ****         ones = RxBuffer[4] - 48;
 296              		.loc 1 48 0
 297 00b0 FB68     		ldr	r3, [r7, #12]
 298 00b2 0433     		adds	r3, r3, #4
 299 00b4 1B78     		ldrb	r3, [r3]	@ zero_extendqisi2
 300 00b6 303B     		subs	r3, r3, #48
 301 00b8 3B66     		str	r3, [r7, #96]
  49:functions.c   ****          
  50:functions.c   ****         if (hunds){ UART_PutChar(RxBuffer[2]); UART_PutChar(RxBuffer[3]);}
 302              		.loc 1 50 0
 303 00ba BB6D     		ldr	r3, [r7, #88]
 304 00bc 002B     		cmp	r3, #0
 305 00be 0CD0     		beq	.L11
 306              		.loc 1 50 0 is_stmt 0 discriminator 1
 307 00c0 FB68     		ldr	r3, [r7, #12]
 308 00c2 0233     		adds	r3, r3, #2
 309 00c4 1B78     		ldrb	r3, [r3]	@ zero_extendqisi2
 310 00c6 1846     		mov	r0, r3
 311 00c8 FFF7FEFF 		bl	UART_PutChar
 312 00cc FB68     		ldr	r3, [r7, #12]
 313 00ce 0333     		adds	r3, r3, #3
 314 00d0 1B78     		ldrb	r3, [r3]	@ zero_extendqisi2
 315 00d2 1846     		mov	r0, r3
 316 00d4 FFF7FEFF 		bl	UART_PutChar
 317 00d8 08E0     		b	.L12
 318              	.L11:
  51:functions.c   ****         else if (tens) UART_PutChar(RxBuffer[3]);
 319              		.loc 1 51 0 is_stmt 1
 320 00da FB6D     		ldr	r3, [r7, #92]
 321 00dc 002B     		cmp	r3, #0
 322 00de 05D0     		beq	.L12
 323              		.loc 1 51 0 is_stmt 0 discriminator 1
 324 00e0 FB68     		ldr	r3, [r7, #12]
 325 00e2 0333     		adds	r3, r3, #3
 326 00e4 1B78     		ldrb	r3, [r3]	@ zero_extendqisi2
 327 00e6 1846     		mov	r0, r3
 328 00e8 FFF7FEFF 		bl	UART_PutChar
 329              	.L12:
  52:functions.c   ****         UART_PutChar(RxBuffer[4]);
 330              		.loc 1 52 0 is_stmt 1
 331 00ec FB68     		ldr	r3, [r7, #12]
ARM GAS  C:\Users\gstoll\AppData\Local\Temp\ccuKDBUb.s 			page 8


 332 00ee 0433     		adds	r3, r3, #4
 333 00f0 1B78     		ldrb	r3, [r3]	@ zero_extendqisi2
 334 00f2 1846     		mov	r0, r3
 335 00f4 FFF7FEFF 		bl	UART_PutChar
  53:functions.c   ****         
  54:functions.c   ****         return (hunds * 100) + (tens * 10) + ones;
 336              		.loc 1 54 0
 337 00f8 BB6D     		ldr	r3, [r7, #88]
 338 00fa 6422     		movs	r2, #100
 339 00fc 02FB03F1 		mul	r1, r2, r3
 340 0100 FA6D     		ldr	r2, [r7, #92]
 341 0102 1346     		mov	r3, r2
 342 0104 9B00     		lsls	r3, r3, #2
 343 0106 1344     		add	r3, r3, r2
 344 0108 5B00     		lsls	r3, r3, #1
 345 010a CA18     		adds	r2, r1, r3
 346 010c 3B6E     		ldr	r3, [r7, #96]
 347 010e 1344     		add	r3, r3, r2
 348 0110 4CE0     		b	.L23
 349              	.L10:
  55:functions.c   ****     } else if (*STATE == TRANSMIT && !strncmp(RxBuffer, "data", 4)){ // prompt to start sending dat
 350              		.loc 1 55 0
 351 0112 BB68     		ldr	r3, [r7, #8]
 352 0114 1B78     		ldrb	r3, [r3]	@ zero_extendqisi2
 353 0116 052B     		cmp	r3, #5
 354 0118 0BD1     		bne	.L14
 355              		.loc 1 55 0 is_stmt 0 discriminator 1
 356 011a F868     		ldr	r0, [r7, #12]
 357 011c 2A49     		ldr	r1, .L24+20
 358 011e 0422     		movs	r2, #4
 359 0120 FFF7FEFF 		bl	strncmp
 360 0124 0346     		mov	r3, r0
 361 0126 002B     		cmp	r3, #0
 362 0128 03D1     		bne	.L14
  56:functions.c   ****         *flag = 1;
 363              		.loc 1 56 0 is_stmt 1
 364 012a 3B68     		ldr	r3, [r7]
 365 012c 0122     		movs	r2, #1
 366 012e 1A60     		str	r2, [r3]
 367 0130 23E0     		b	.L8
 368              	.L14:
  57:functions.c   ****     } else {
  58:functions.c   ****         while (i < COMMANDS_LEN){
 369              		.loc 1 58 0
 370 0132 12E0     		b	.L15
 371              	.L18:
  59:functions.c   ****             while(UART_ReadTxStatus() & UART_TX_STS_FIFO_NOT_FULL)
 372              		.loc 1 59 0
 373 0134 0AE0     		b	.L16
 374              	.L17:
  60:functions.c   ****                 UART_PutChar(commands[i++]);
 375              		.loc 1 60 0
 376 0136 7B6E     		ldr	r3, [r7, #100]
 377 0138 5A1C     		adds	r2, r3, #1
 378 013a 7A66     		str	r2, [r7, #100]
 379 013c 07F16802 		add	r2, r7, #104
 380 0140 1344     		add	r3, r3, r2
ARM GAS  C:\Users\gstoll\AppData\Local\Temp\ccuKDBUb.s 			page 9


 381 0142 13F8403C 		ldrb	r3, [r3, #-64]	@ zero_extendqisi2
 382 0146 1846     		mov	r0, r3
 383 0148 FFF7FEFF 		bl	UART_PutChar
 384              	.L16:
  59:functions.c   ****             while(UART_ReadTxStatus() & UART_TX_STS_FIFO_NOT_FULL)
 385              		.loc 1 59 0
 386 014c FFF7FEFF 		bl	UART_ReadTxStatus
 387 0150 0346     		mov	r3, r0
 388 0152 03F00803 		and	r3, r3, #8
 389 0156 002B     		cmp	r3, #0
 390 0158 EDD1     		bne	.L17
 391              	.L15:
  58:functions.c   ****             while(UART_ReadTxStatus() & UART_TX_STS_FIFO_NOT_FULL)
 392              		.loc 1 58 0
 393 015a 7B6E     		ldr	r3, [r7, #100]
 394 015c 2D2B     		cmp	r3, #45
 395 015e E9DD     		ble	.L18
  61:functions.c   ****         }
  62:functions.c   ****         return (hunds * 100) + (tens * 10) + ones;
 396              		.loc 1 62 0
 397 0160 BB6D     		ldr	r3, [r7, #88]
 398 0162 6422     		movs	r2, #100
 399 0164 02FB03F1 		mul	r1, r2, r3
 400 0168 FA6D     		ldr	r2, [r7, #92]
 401 016a 1346     		mov	r3, r2
 402 016c 9B00     		lsls	r3, r3, #2
 403 016e 1344     		add	r3, r3, r2
 404 0170 5B00     		lsls	r3, r3, #1
 405 0172 CA18     		adds	r2, r1, r3
 406 0174 3B6E     		ldr	r3, [r7, #96]
 407 0176 1344     		add	r3, r3, r2
 408 0178 18E0     		b	.L23
 409              	.L8:
  63:functions.c   ****     }
  64:functions.c   ****    
  65:functions.c   ****     while (i < bytes + 3){
 410              		.loc 1 65 0
 411 017a 11E0     		b	.L19
 412              	.L22:
  66:functions.c   ****         while(UART_ReadTxStatus() & UART_TX_STS_FIFO_NOT_FULL)
 413              		.loc 1 66 0
 414 017c 09E0     		b	.L20
 415              	.L21:
  67:functions.c   ****             UART_PutChar(RxBuffer[i++]);
 416              		.loc 1 67 0
 417 017e 7B6E     		ldr	r3, [r7, #100]
 418 0180 5A1C     		adds	r2, r3, #1
 419 0182 7A66     		str	r2, [r7, #100]
 420 0184 1A46     		mov	r2, r3
 421 0186 FB68     		ldr	r3, [r7, #12]
 422 0188 1344     		add	r3, r3, r2
 423 018a 1B78     		ldrb	r3, [r3]	@ zero_extendqisi2
 424 018c 1846     		mov	r0, r3
 425 018e FFF7FEFF 		bl	UART_PutChar
 426              	.L20:
  66:functions.c   ****         while(UART_ReadTxStatus() & UART_TX_STS_FIFO_NOT_FULL)
 427              		.loc 1 66 0
ARM GAS  C:\Users\gstoll\AppData\Local\Temp\ccuKDBUb.s 			page 10


 428 0192 FFF7FEFF 		bl	UART_ReadTxStatus
 429 0196 0346     		mov	r3, r0
 430 0198 03F00803 		and	r3, r3, #8
 431 019c 002B     		cmp	r3, #0
 432 019e EED1     		bne	.L21
 433              	.L19:
  65:functions.c   ****         while(UART_ReadTxStatus() & UART_TX_STS_FIFO_NOT_FULL)
 434              		.loc 1 65 0
 435 01a0 7B68     		ldr	r3, [r7, #4]
 436 01a2 DA1C     		adds	r2, r3, #3
 437 01a4 7B6E     		ldr	r3, [r7, #100]
 438 01a6 9A42     		cmp	r2, r3
 439 01a8 E8DC     		bgt	.L22
  68:functions.c   ****     }
  69:functions.c   ****     return 100;
 440              		.loc 1 69 0
 441 01aa 6423     		movs	r3, #100
 442              	.L23:
  70:functions.c   **** }
 443              		.loc 1 70 0 discriminator 1
 444 01ac 1846     		mov	r0, r3
 445 01ae 6837     		adds	r7, r7, #104
 446              		.cfi_def_cfa_offset 16
 447 01b0 BD46     		mov	sp, r7
 448              		.cfi_def_cfa_register 13
 449              		@ sp needed
 450 01b2 B0BD     		pop	{r4, r5, r7, pc}
 451              	.L25:
 452              		.align	2
 453              	.L24:
 454 01b4 2C000000 		.word	.LC1
 455 01b8 5C000000 		.word	.LC2
 456 01bc 10000000 		.word	.LC3
 457 01c0 18000000 		.word	.LC4
 458 01c4 20000000 		.word	.LC5
 459 01c8 24000000 		.word	.LC6
 460              		.cfi_endproc
 461              	.LFE65:
 462              		.size	BT_Process, .-BT_Process
 463              		.section	.rodata
 464 0071 000000   		.align	2
 465              	.LC7:
 466 0074 53544154 		.ascii	"STATE: WAIT_TO_LAUNCH\012\000"
 466      453A2057 
 466      4149545F 
 466      544F5F4C 
 466      41554E43 
 467 008b 00       		.space	1
 468              		.align	2
 469              	.LC8:
 470 008c 5472616E 		.ascii	"Transmitting data\012\000"
 470      736D6974 
 470      74696E67 
 470      20646174 
 470      610A00
 471 009f 00       		.section	.text.BT_Send,"ax",%progbits
 472              		.align	2
ARM GAS  C:\Users\gstoll\AppData\Local\Temp\ccuKDBUb.s 			page 11


 473              		.global	BT_Send
 474              		.thumb
 475              		.thumb_func
 476              		.type	BT_Send, %function
 477              	BT_Send:
 478              	.LFB66:
  71:functions.c   **** 
  72:functions.c   **** /* For sending status of State, or data back in transmit state */
  73:functions.c   **** void BT_Send(char *TxBuffer, STATES *STATE, int lengthOfBuf, int *firstPacket){
 479              		.loc 1 73 0
 480              		.cfi_startproc
 481              		@ args = 0, pretend = 0, frame = 64
 482              		@ frame_needed = 1, uses_anonymous_args = 0
 483 0000 B0B5     		push	{r4, r5, r7, lr}
 484              		.cfi_def_cfa_offset 16
 485              		.cfi_offset 4, -16
 486              		.cfi_offset 5, -12
 487              		.cfi_offset 7, -8
 488              		.cfi_offset 14, -4
 489 0002 90B0     		sub	sp, sp, #64
 490              		.cfi_def_cfa_offset 80
 491 0004 00AF     		add	r7, sp, #0
 492              		.cfi_def_cfa_register 7
 493 0006 F860     		str	r0, [r7, #12]
 494 0008 B960     		str	r1, [r7, #8]
 495 000a 7A60     		str	r2, [r7, #4]
 496 000c 3B60     		str	r3, [r7]
  74:functions.c   ****     int i = 0;
 497              		.loc 1 74 0
 498 000e 0023     		movs	r3, #0
 499 0010 FB63     		str	r3, [r7, #60]
  75:functions.c   ****     uint8 waitstate[WAITING_LEN] = STATE_WAITING;
 500              		.loc 1 75 0
 501 0012 2E4B     		ldr	r3, .L38
 502 0014 07F12404 		add	r4, r7, #36
 503 0018 1D46     		mov	r5, r3
 504 001a 0FCD     		ldmia	r5!, {r0, r1, r2, r3}
 505 001c 0FC4     		stmia	r4!, {r0, r1, r2, r3}
 506 001e 95E80300 		ldmia	r5, {r0, r1}
 507 0022 2060     		str	r0, [r4]
 508 0024 0434     		adds	r4, r4, #4
 509 0026 2180     		strh	r1, [r4]	@ movhi
 510 0028 0234     		adds	r4, r4, #2
 511 002a 0B0C     		lsrs	r3, r1, #16
 512 002c 2370     		strb	r3, [r4]
 513 002e 0023     		movs	r3, #0
 514 0030 87F83B30 		strb	r3, [r7, #59]
  76:functions.c   ****     uint8 transtate[TRANSMITTING_LEN] = TRANSMITTING;
 515              		.loc 1 76 0
 516 0034 264B     		ldr	r3, .L38+4
 517 0036 07F11004 		add	r4, r7, #16
 518 003a 1D46     		mov	r5, r3
 519 003c 0FCD     		ldmia	r5!, {r0, r1, r2, r3}
 520 003e 0FC4     		stmia	r4!, {r0, r1, r2, r3}
 521 0040 2B68     		ldr	r3, [r5]
 522 0042 2380     		strh	r3, [r4]	@ movhi
  77:functions.c   ****     
ARM GAS  C:\Users\gstoll\AppData\Local\Temp\ccuKDBUb.s 			page 12


  78:functions.c   ****     if (*STATE == WAIT_TO_LAUNCH){                  // Just send STATE back to indicate
 523              		.loc 1 78 0
 524 0044 BB68     		ldr	r3, [r7, #8]
 525 0046 1B78     		ldrb	r3, [r3]	@ zero_extendqisi2
 526 0048 012B     		cmp	r3, #1
 527 004a 17D1     		bne	.L27
  79:functions.c   ****         while (i < WAITING_LEN - 1){
 528              		.loc 1 79 0
 529 004c 12E0     		b	.L28
 530              	.L31:
  80:functions.c   ****             while(UART_ReadTxStatus() & UART_TX_STS_FIFO_NOT_FULL)
 531              		.loc 1 80 0
 532 004e 0AE0     		b	.L29
 533              	.L30:
  81:functions.c   ****                 UART_PutChar(waitstate[i++]);
 534              		.loc 1 81 0
 535 0050 FB6B     		ldr	r3, [r7, #60]
 536 0052 5A1C     		adds	r2, r3, #1
 537 0054 FA63     		str	r2, [r7, #60]
 538 0056 07F14002 		add	r2, r7, #64
 539 005a 1344     		add	r3, r3, r2
 540 005c 13F81C3C 		ldrb	r3, [r3, #-28]	@ zero_extendqisi2
 541 0060 1846     		mov	r0, r3
 542 0062 FFF7FEFF 		bl	UART_PutChar
 543              	.L29:
  80:functions.c   ****             while(UART_ReadTxStatus() & UART_TX_STS_FIFO_NOT_FULL)
 544              		.loc 1 80 0
 545 0066 FFF7FEFF 		bl	UART_ReadTxStatus
 546 006a 0346     		mov	r3, r0
 547 006c 03F00803 		and	r3, r3, #8
 548 0070 002B     		cmp	r3, #0
 549 0072 EDD1     		bne	.L30
 550              	.L28:
  79:functions.c   ****         while (i < WAITING_LEN - 1){
 551              		.loc 1 79 0
 552 0074 FB6B     		ldr	r3, [r7, #60]
 553 0076 162B     		cmp	r3, #22
 554 0078 E9DD     		ble	.L31
 555 007a 23E0     		b	.L26
 556              	.L27:
  82:functions.c   ****         }
  83:functions.c   ****     }
  84:functions.c   ****     else if (*STATE == TRANSMIT){                   // Send STATE back then data from buffer
 557              		.loc 1 84 0
 558 007c BB68     		ldr	r3, [r7, #8]
 559 007e 1B78     		ldrb	r3, [r3]	@ zero_extendqisi2
 560 0080 052B     		cmp	r3, #5
 561 0082 1FD1     		bne	.L26
  85:functions.c   ****         if (*firstPacket){                          // only send STATE once
 562              		.loc 1 85 0
 563 0084 3B68     		ldr	r3, [r7]
 564 0086 1B68     		ldr	r3, [r3]
 565 0088 002B     		cmp	r3, #0
 566 008a 19D0     		beq	.L33
  86:functions.c   ****             while (i < TRANSMITTING_LEN - 1){
 567              		.loc 1 86 0
 568 008c 12E0     		b	.L34
ARM GAS  C:\Users\gstoll\AppData\Local\Temp\ccuKDBUb.s 			page 13


 569              	.L37:
  87:functions.c   ****                 while(UART_ReadTxStatus() & UART_TX_STS_FIFO_NOT_FULL)
 570              		.loc 1 87 0
 571 008e 0AE0     		b	.L35
 572              	.L36:
  88:functions.c   ****                     UART_PutChar(transtate[i++]);
 573              		.loc 1 88 0
 574 0090 FB6B     		ldr	r3, [r7, #60]
 575 0092 5A1C     		adds	r2, r3, #1
 576 0094 FA63     		str	r2, [r7, #60]
 577 0096 07F14002 		add	r2, r7, #64
 578 009a 1344     		add	r3, r3, r2
 579 009c 13F8303C 		ldrb	r3, [r3, #-48]	@ zero_extendqisi2
 580 00a0 1846     		mov	r0, r3
 581 00a2 FFF7FEFF 		bl	UART_PutChar
 582              	.L35:
  87:functions.c   ****                 while(UART_ReadTxStatus() & UART_TX_STS_FIFO_NOT_FULL)
 583              		.loc 1 87 0
 584 00a6 FFF7FEFF 		bl	UART_ReadTxStatus
 585 00aa 0346     		mov	r3, r0
 586 00ac 03F00803 		and	r3, r3, #8
 587 00b0 002B     		cmp	r3, #0
 588 00b2 EDD1     		bne	.L36
 589              	.L34:
  86:functions.c   ****             while (i < TRANSMITTING_LEN - 1){
 590              		.loc 1 86 0
 591 00b4 FB6B     		ldr	r3, [r7, #60]
 592 00b6 102B     		cmp	r3, #16
 593 00b8 E9DD     		ble	.L37
  89:functions.c   ****             }
  90:functions.c   ****             *firstPacket = 0;
 594              		.loc 1 90 0
 595 00ba 3B68     		ldr	r3, [r7]
 596 00bc 0022     		movs	r2, #0
 597 00be 1A60     		str	r2, [r3]
 598              	.L33:
  91:functions.c   ****         } i = 0;
 599              		.loc 1 91 0
 600 00c0 0023     		movs	r3, #0
 601 00c2 FB63     		str	r3, [r7, #60]
 602              	.L26:
  92:functions.c   **** //        while (i < lengthOfBuf - 1){                // Send buffer 
  93:functions.c   **** //            while(UART_ReadTxStatus() & UART_TX_STS_FIFO_NOT_FULL)
  94:functions.c   **** //                UART_PutChar(TxBuffer[i++]);
  95:functions.c   **** //        }
  96:functions.c   ****     }
  97:functions.c   **** }
 603              		.loc 1 97 0
 604 00c4 4037     		adds	r7, r7, #64
 605              		.cfi_def_cfa_offset 16
 606 00c6 BD46     		mov	sp, r7
 607              		.cfi_def_cfa_register 13
 608              		@ sp needed
 609 00c8 B0BD     		pop	{r4, r5, r7, pc}
 610              	.L39:
 611 00ca 00BF     		.align	2
 612              	.L38:
ARM GAS  C:\Users\gstoll\AppData\Local\Temp\ccuKDBUb.s 			page 14


 613 00cc 74000000 		.word	.LC7
 614 00d0 8C000000 		.word	.LC8
 615              		.cfi_endproc
 616              	.LFE66:
 617              		.size	BT_Send, .-BT_Send
 618              		.section	.text.uint8_to_char,"ax",%progbits
 619              		.align	2
 620              		.global	uint8_to_char
 621              		.thumb
 622              		.thumb_func
 623              		.type	uint8_to_char, %function
 624              	uint8_to_char:
 625              	.LFB67:
  98:functions.c   **** 
  99:functions.c   **** /* Convert uint8 array to chars, for type warnings/errors in above functions*/
 100:functions.c   **** void uint8_to_char(uint8_t a[], char *b, int len){
 626              		.loc 1 100 0
 627              		.cfi_startproc
 628              		@ args = 0, pretend = 0, frame = 32
 629              		@ frame_needed = 1, uses_anonymous_args = 0
 630              		@ link register save eliminated.
 631 0000 80B4     		push	{r7}
 632              		.cfi_def_cfa_offset 4
 633              		.cfi_offset 7, -4
 634 0002 89B0     		sub	sp, sp, #36
 635              		.cfi_def_cfa_offset 40
 636 0004 00AF     		add	r7, sp, #0
 637              		.cfi_def_cfa_register 7
 638 0006 F860     		str	r0, [r7, #12]
 639 0008 B960     		str	r1, [r7, #8]
 640 000a 7A60     		str	r2, [r7, #4]
 101:functions.c   ****     int i = 0, j = 0, good_msg = 0;
 641              		.loc 1 101 0
 642 000c 0023     		movs	r3, #0
 643 000e FB61     		str	r3, [r7, #28]
 644 0010 0023     		movs	r3, #0
 645 0012 BB61     		str	r3, [r7, #24]
 646 0014 0023     		movs	r3, #0
 647 0016 7B61     		str	r3, [r7, #20]
 102:functions.c   ****     for (;i < len; i++){
 648              		.loc 1 102 0
 649 0018 18E0     		b	.L41
 650              	.L44:
 103:functions.c   ****         if ((char)a[i] == '0') good_msg = 1;
 651              		.loc 1 103 0
 652 001a FB69     		ldr	r3, [r7, #28]
 653 001c FA68     		ldr	r2, [r7, #12]
 654 001e 1344     		add	r3, r3, r2
 655 0020 1B78     		ldrb	r3, [r3]	@ zero_extendqisi2
 656 0022 302B     		cmp	r3, #48
 657 0024 01D1     		bne	.L42
 658              		.loc 1 103 0 is_stmt 0 discriminator 1
 659 0026 0123     		movs	r3, #1
 660 0028 7B61     		str	r3, [r7, #20]
 661              	.L42:
 104:functions.c   ****         if (good_msg)
 662              		.loc 1 104 0 is_stmt 1
ARM GAS  C:\Users\gstoll\AppData\Local\Temp\ccuKDBUb.s 			page 15


 663 002a 7B69     		ldr	r3, [r7, #20]
 664 002c 002B     		cmp	r3, #0
 665 002e 0AD0     		beq	.L43
 105:functions.c   ****             b[j++] = (char)a[i];
 666              		.loc 1 105 0
 667 0030 BB69     		ldr	r3, [r7, #24]
 668 0032 5A1C     		adds	r2, r3, #1
 669 0034 BA61     		str	r2, [r7, #24]
 670 0036 1A46     		mov	r2, r3
 671 0038 BB68     		ldr	r3, [r7, #8]
 672 003a 1344     		add	r3, r3, r2
 673 003c FA69     		ldr	r2, [r7, #28]
 674 003e F968     		ldr	r1, [r7, #12]
 675 0040 0A44     		add	r2, r2, r1
 676 0042 1278     		ldrb	r2, [r2]	@ zero_extendqisi2
 677 0044 1A70     		strb	r2, [r3]
 678              	.L43:
 102:functions.c   ****         if ((char)a[i] == '0') good_msg = 1;
 679              		.loc 1 102 0
 680 0046 FB69     		ldr	r3, [r7, #28]
 681 0048 0133     		adds	r3, r3, #1
 682 004a FB61     		str	r3, [r7, #28]
 683              	.L41:
 102:functions.c   ****         if ((char)a[i] == '0') good_msg = 1;
 684              		.loc 1 102 0 is_stmt 0 discriminator 1
 685 004c FA69     		ldr	r2, [r7, #28]
 686 004e 7B68     		ldr	r3, [r7, #4]
 687 0050 9A42     		cmp	r2, r3
 688 0052 E2DB     		blt	.L44
 106:functions.c   ****     }
 107:functions.c   **** }
 689              		.loc 1 107 0 is_stmt 1
 690 0054 2437     		adds	r7, r7, #36
 691              		.cfi_def_cfa_offset 4
 692 0056 BD46     		mov	sp, r7
 693              		.cfi_def_cfa_register 13
 694              		@ sp needed
 695 0058 5DF8047B 		ldr	r7, [sp], #4
 696              		.cfi_restore 7
 697              		.cfi_def_cfa_offset 0
 698 005c 7047     		bx	lr
 699              		.cfi_endproc
 700              	.LFE67:
 701              		.size	uint8_to_char, .-uint8_to_char
 702 005e 00BF     		.text
 703              	.Letext0:
 704              		.file 2 "c:\\program files (x86)\\cypress\\psoc creator\\4.0\\psoc creator\\import\\gnu\\arm\\4.9.
 705              		.file 3 "c:\\program files (x86)\\cypress\\psoc creator\\4.0\\psoc creator\\import\\gnu\\arm\\4.9.
 706              		.file 4 "functions.h"
 707              		.file 5 "Generated_Source\\PSoC5/cytypes.h"
 708              		.file 6 "Generated_Source\\PSoC5/core_cm3.h"