ARM GAS  C:\Users\gding\AppData\Local\Temp\ccuFBthr.s 			page 1


   1              		.syntax unified
   2              		.cpu cortex-m3
   3              		.fpu softvfp
   4              		.eabi_attribute 20, 1
   5              		.eabi_attribute 21, 1
   6              		.eabi_attribute 23, 3
   7              		.eabi_attribute 24, 1
   8              		.eabi_attribute 25, 1
   9              		.eabi_attribute 26, 1
  10              		.eabi_attribute 30, 6
  11              		.eabi_attribute 34, 1
  12              		.eabi_attribute 18, 4
  13              		.thumb
  14              		.file	"functions.c"
  15              		.text
  16              	.Ltext0:
  17              		.cfi_sections	.debug_frame
  18              		.comm	accelData,10,4
  19              		.section	.rodata
  20              		.align	2
  21              	.LC0:
  22 0000 25642025 		.ascii	"%d %d %d     \000"
  22      64202564 
  22      20202020 
  22      2000
  23              		.section	.text.I2C_LCD_print,"ax",%progbits
  24              		.align	2
  25              		.global	I2C_LCD_print
  26              		.thumb
  27              		.thumb_func
  28              		.type	I2C_LCD_print, %function
  29              	I2C_LCD_print:
  30              	.LFB63:
  31              		.file 1 "functions.c"
   1:functions.c   **** /* ========================================
   2:functions.c   ****  *
   3:functions.c   ****  * Copyright YOUR COMPANY, THE YEAR
   4:functions.c   ****  * All Rights Reserved
   5:functions.c   ****  * UNPUBLISHED, LICENSED SOFTWARE.
   6:functions.c   ****  *
   7:functions.c   ****  * CONFIDENTIAL AND PROPRIETARY INFORMATION
   8:functions.c   ****  * WHICH IS THE PROPERTY OF your company.
   9:functions.c   ****  *
  10:functions.c   ****  * ========================================
  11:functions.c   **** */
  12:functions.c   **** #include <stdint.h>
  13:functions.c   **** #include <stdio.h>
  14:functions.c   **** #include <math.h>
  15:functions.c   **** #include "functions.h"
  16:functions.c   **** #include "LiquidCrystal_I2C.h"
  17:functions.c   **** 
  18:functions.c   **** char accelData[10];
  19:functions.c   **** 
  20:functions.c   **** void I2C_LCD_print(uint8_t row, uint8_t column, uint16_t ax, uint16_t ay,uint16_t az){
  32              		.loc 1 20 0
  33              		.cfi_startproc
  34              		@ args = 4, pretend = 0, frame = 8
ARM GAS  C:\Users\gding\AppData\Local\Temp\ccuFBthr.s 			page 2


  35              		@ frame_needed = 1, uses_anonymous_args = 0
  36 0000 90B5     		push	{r4, r7, lr}
  37              		.cfi_def_cfa_offset 12
  38              		.cfi_offset 4, -12
  39              		.cfi_offset 7, -8
  40              		.cfi_offset 14, -4
  41 0002 85B0     		sub	sp, sp, #20
  42              		.cfi_def_cfa_offset 32
  43 0004 02AF     		add	r7, sp, #8
  44              		.cfi_def_cfa 7, 24
  45 0006 0446     		mov	r4, r0
  46 0008 0846     		mov	r0, r1
  47 000a 1146     		mov	r1, r2
  48 000c 1A46     		mov	r2, r3
  49 000e 2346     		mov	r3, r4
  50 0010 FB71     		strb	r3, [r7, #7]
  51 0012 0346     		mov	r3, r0
  52 0014 BB71     		strb	r3, [r7, #6]
  53 0016 0B46     		mov	r3, r1	@ movhi
  54 0018 BB80     		strh	r3, [r7, #4]	@ movhi
  55 001a 1346     		mov	r3, r2	@ movhi
  56 001c 7B80     		strh	r3, [r7, #2]	@ movhi
  21:functions.c   ****     sprintf(accelData,"%d %d %d     ",ax,ay,az); 
  57              		.loc 1 21 0
  58 001e BA88     		ldrh	r2, [r7, #4]
  59 0020 7C88     		ldrh	r4, [r7, #2]
  60 0022 3B8B     		ldrh	r3, [r7, #24]
  61 0024 0093     		str	r3, [sp]
  62 0026 0848     		ldr	r0, .L2
  63 0028 0849     		ldr	r1, .L2+4
  64 002a 2346     		mov	r3, r4
  65 002c FFF7FEFF 		bl	sprintf
  22:functions.c   ****     //clear();
  23:functions.c   ****     setCursor(column,row);
  66              		.loc 1 23 0
  67 0030 BA79     		ldrb	r2, [r7, #6]	@ zero_extendqisi2
  68 0032 FB79     		ldrb	r3, [r7, #7]	@ zero_extendqisi2
  69 0034 1046     		mov	r0, r2
  70 0036 1946     		mov	r1, r3
  71 0038 FFF7FEFF 		bl	setCursor
  24:functions.c   ****     LCD_print(accelData);
  72              		.loc 1 24 0
  73 003c 0248     		ldr	r0, .L2
  74 003e FFF7FEFF 		bl	LCD_print
  25:functions.c   **** }
  75              		.loc 1 25 0
  76 0042 0C37     		adds	r7, r7, #12
  77              		.cfi_def_cfa_offset 12
  78 0044 BD46     		mov	sp, r7
  79              		.cfi_def_cfa_register 13
  80              		@ sp needed
  81 0046 90BD     		pop	{r4, r7, pc}
  82              	.L3:
  83              		.align	2
  84              	.L2:
  85 0048 00000000 		.word	accelData
  86 004c 00000000 		.word	.LC0
ARM GAS  C:\Users\gding\AppData\Local\Temp\ccuFBthr.s 			page 3


  87              		.cfi_endproc
  88              	.LFE63:
  89              		.size	I2C_LCD_print, .-I2C_LCD_print
  90              		.global	__aeabi_i2f
  91              		.global	__aeabi_fdiv
  92              		.global	__aeabi_fsub
  93              		.global	__aeabi_fadd
  94              		.section	.text.ComputeMA,"ax",%progbits
  95              		.align	2
  96              		.global	ComputeMA
  97              		.thumb
  98              		.thumb_func
  99              		.type	ComputeMA, %function
 100              	ComputeMA:
 101              	.LFB64:
  26:functions.c   **** 
  27:functions.c   **** float ComputeMA(float avg, int16_t n, float sample){
 102              		.loc 1 27 0
 103              		.cfi_startproc
 104              		@ args = 0, pretend = 0, frame = 16
 105              		@ frame_needed = 1, uses_anonymous_args = 0
 106 0000 80B5     		push	{r7, lr}
 107              		.cfi_def_cfa_offset 8
 108              		.cfi_offset 7, -8
 109              		.cfi_offset 14, -4
 110 0002 84B0     		sub	sp, sp, #16
 111              		.cfi_def_cfa_offset 24
 112 0004 00AF     		add	r7, sp, #0
 113              		.cfi_def_cfa_register 7
 114 0006 F860     		str	r0, [r7, #12]	@ float
 115 0008 0B46     		mov	r3, r1
 116 000a 7A60     		str	r2, [r7, #4]	@ float
 117 000c 7B81     		strh	r3, [r7, #10]	@ movhi
  28:functions.c   ****     avg -= avg/n;
 118              		.loc 1 28 0
 119 000e B7F90A30 		ldrsh	r3, [r7, #10]
 120 0012 1846     		mov	r0, r3
 121 0014 FFF7FEFF 		bl	__aeabi_i2f
 122 0018 0346     		mov	r3, r0
 123 001a F868     		ldr	r0, [r7, #12]	@ float
 124 001c 1946     		mov	r1, r3
 125 001e FFF7FEFF 		bl	__aeabi_fdiv
 126 0022 0346     		mov	r3, r0
 127 0024 F868     		ldr	r0, [r7, #12]	@ float
 128 0026 1946     		mov	r1, r3
 129 0028 FFF7FEFF 		bl	__aeabi_fsub
 130 002c 0346     		mov	r3, r0
 131 002e FB60     		str	r3, [r7, #12]	@ float
  29:functions.c   ****     avg += sample/n;
 132              		.loc 1 29 0
 133 0030 B7F90A30 		ldrsh	r3, [r7, #10]
 134 0034 1846     		mov	r0, r3
 135 0036 FFF7FEFF 		bl	__aeabi_i2f
 136 003a 0346     		mov	r3, r0
 137 003c 7868     		ldr	r0, [r7, #4]	@ float
 138 003e 1946     		mov	r1, r3
 139 0040 FFF7FEFF 		bl	__aeabi_fdiv
ARM GAS  C:\Users\gding\AppData\Local\Temp\ccuFBthr.s 			page 4


 140 0044 0346     		mov	r3, r0
 141 0046 F868     		ldr	r0, [r7, #12]	@ float
 142 0048 1946     		mov	r1, r3
 143 004a FFF7FEFF 		bl	__aeabi_fadd
 144 004e 0346     		mov	r3, r0
 145 0050 FB60     		str	r3, [r7, #12]	@ float
  30:functions.c   ****     return avg;    
 146              		.loc 1 30 0
 147 0052 FB68     		ldr	r3, [r7, #12]	@ float
  31:functions.c   **** }
 148              		.loc 1 31 0
 149 0054 1846     		mov	r0, r3
 150 0056 1037     		adds	r7, r7, #16
 151              		.cfi_def_cfa_offset 8
 152 0058 BD46     		mov	sp, r7
 153              		.cfi_def_cfa_register 13
 154              		@ sp needed
 155 005a 80BD     		pop	{r7, pc}
 156              		.cfi_endproc
 157              	.LFE64:
 158              		.size	ComputeMA, .-ComputeMA
 159              		.section	.rodata
 160 000e 0000     		.align	2
 161              	.LC3:
 162 0010 72657365 		.ascii	"reset\000"
 162      7400
 163 0016 0000     		.align	2
 164              	.LC4:
 165 0018 73746172 		.ascii	"start\000"
 165      7400
 166 001e 0000     		.align	2
 167              	.LC5:
 168 0020 643A00   		.ascii	"d:\000"
 169 0023 00       		.align	2
 170              	.LC6:
 171 0024 64617461 		.ascii	"data\000"
 171      00
 172 0029 000000   		.align	2
 173              	.LC1:
 174 002c 0A636F6D 		.ascii	"\012commands: \01205,start\01205,reset\01204,data\012"
 174      6D616E64 
 174      733A200A 
 174      30352C73 
 174      74617274 
 175 0052 30352C64 		.ascii	"05,depth\000"
 175      65707468 
 175      00
 176 005b 00       		.align	2
 177              	.LC2:
 178 005c 456E7465 		.ascii	"Enter desired depth:\000"
 178      72206465 
 178      73697265 
 178      64206465 
 178      7074683A 
 179              		.section	.text.BT_Process,"ax",%progbits
 180              		.align	2
 181              		.global	BT_Process
ARM GAS  C:\Users\gding\AppData\Local\Temp\ccuFBthr.s 			page 5


 182              		.thumb
 183              		.thumb_func
 184              		.type	BT_Process, %function
 185              	BT_Process:
 186              	.LFB65:
  32:functions.c   **** 
  33:functions.c   **** /* Process an incoming message, only for WAIT, TRANSMIT states, or for a reset of the system */
  34:functions.c   **** int BT_Process(char *RxBuffer, STATES *STATE, int bytes, int *flag, int *reset){
 187              		.loc 1 34 0
 188              		.cfi_startproc
 189              		@ args = 4, pretend = 0, frame = 88
 190              		@ frame_needed = 1, uses_anonymous_args = 0
 191 0000 B0B5     		push	{r4, r5, r7, lr}
 192              		.cfi_def_cfa_offset 16
 193              		.cfi_offset 4, -16
 194              		.cfi_offset 5, -12
 195              		.cfi_offset 7, -8
 196              		.cfi_offset 14, -4
 197 0002 96B0     		sub	sp, sp, #88
 198              		.cfi_def_cfa_offset 104
 199 0004 00AF     		add	r7, sp, #0
 200              		.cfi_def_cfa_register 7
 201 0006 F860     		str	r0, [r7, #12]
 202 0008 B960     		str	r1, [r7, #8]
 203 000a 7A60     		str	r2, [r7, #4]
 204 000c 3B60     		str	r3, [r7]
  35:functions.c   ****     int i = 0;
 205              		.loc 1 35 0
 206 000e 0023     		movs	r3, #0
 207 0010 7B65     		str	r3, [r7, #84]
  36:functions.c   ****     static int ones = 0, tens = 0, hunds = 0;
  37:functions.c   ****     char commands[COMMANDS_LEN] = COMMANDS;
 208              		.loc 1 37 0
 209 0012 7D4B     		ldr	r3, .L28
 210 0014 07F12404 		add	r4, r7, #36
 211 0018 1D46     		mov	r5, r3
 212 001a 0FCD     		ldmia	r5!, {r0, r1, r2, r3}
 213 001c 0FC4     		stmia	r4!, {r0, r1, r2, r3}
 214 001e 0FCD     		ldmia	r5!, {r0, r1, r2, r3}
 215 0020 0FC4     		stmia	r4!, {r0, r1, r2, r3}
 216 0022 95E80F00 		ldmia	r5, {r0, r1, r2, r3}
 217 0026 07C4     		stmia	r4!, {r0, r1, r2}
 218 0028 2380     		strh	r3, [r4]	@ movhi
  38:functions.c   ****     char depth[SEND_DEPTH_LEN] = SEND_DEPTH;
 219              		.loc 1 38 0
 220 002a 784B     		ldr	r3, .L28+4
 221 002c 07F11004 		add	r4, r7, #16
 222 0030 1D46     		mov	r5, r3
 223 0032 0FCD     		ldmia	r5!, {r0, r1, r2, r3}
 224 0034 0FC4     		stmia	r4!, {r0, r1, r2, r3}
 225 0036 2B68     		ldr	r3, [r5]
 226 0038 2360     		str	r3, [r4]
  39:functions.c   ****     if (!strncmp(RxBuffer, "reset", 5)){                      // stop/reset program, go back to WAI
 227              		.loc 1 39 0
 228 003a F868     		ldr	r0, [r7, #12]
 229 003c 7449     		ldr	r1, .L28+8
 230 003e 0522     		movs	r2, #5
ARM GAS  C:\Users\gding\AppData\Local\Temp\ccuFBthr.s 			page 6


 231 0040 FFF7FEFF 		bl	strncmp
 232 0044 0346     		mov	r3, r0
 233 0046 002B     		cmp	r3, #0
 234 0048 06D1     		bne	.L7
  40:functions.c   ****         *STATE = WAIT_TO_LAUNCH;
 235              		.loc 1 40 0
 236 004a BB68     		ldr	r3, [r7, #8]
 237 004c 0122     		movs	r2, #1
 238 004e 1A70     		strb	r2, [r3]
  41:functions.c   ****         *reset = 1;
 239              		.loc 1 41 0
 240 0050 BB6E     		ldr	r3, [r7, #104]
 241 0052 0122     		movs	r2, #1
 242 0054 1A60     		str	r2, [r3]
 243 0056 ACE0     		b	.L8
 244              	.L7:
  42:functions.c   ****     } else if (*STATE == WAIT_TO_LAUNCH && !strncmp(RxBuffer, "start", 5)){ // start the process, a
 245              		.loc 1 42 0
 246 0058 BB68     		ldr	r3, [r7, #8]
 247 005a 1B78     		ldrb	r3, [r3]	@ zero_extendqisi2
 248 005c 012B     		cmp	r3, #1
 249 005e 22D1     		bne	.L9
 250              		.loc 1 42 0 is_stmt 0 discriminator 1
 251 0060 F868     		ldr	r0, [r7, #12]
 252 0062 6C49     		ldr	r1, .L28+12
 253 0064 0522     		movs	r2, #5
 254 0066 FFF7FEFF 		bl	strncmp
 255 006a 0346     		mov	r3, r0
 256 006c 002B     		cmp	r3, #0
 257 006e 1AD1     		bne	.L9
  43:functions.c   ****          *flag = 1;
 258              		.loc 1 43 0 is_stmt 1
 259 0070 3B68     		ldr	r3, [r7]
 260 0072 0122     		movs	r2, #1
 261 0074 1A60     		str	r2, [r3]
  44:functions.c   ****         while (i < SEND_DEPTH_LEN){
 262              		.loc 1 44 0
 263 0076 12E0     		b	.L10
 264              	.L13:
  45:functions.c   ****             while(UART_ReadTxStatus() & UART_TX_STS_FIFO_NOT_FULL)
 265              		.loc 1 45 0
 266 0078 0AE0     		b	.L11
 267              	.L12:
  46:functions.c   ****                 UART_PutChar(depth[i++]);
 268              		.loc 1 46 0
 269 007a 7B6D     		ldr	r3, [r7, #84]
 270 007c 5A1C     		adds	r2, r3, #1
 271 007e 7A65     		str	r2, [r7, #84]
 272 0080 07F15802 		add	r2, r7, #88
 273 0084 1344     		add	r3, r3, r2
 274 0086 13F8483C 		ldrb	r3, [r3, #-72]	@ zero_extendqisi2
 275 008a 1846     		mov	r0, r3
 276 008c FFF7FEFF 		bl	UART_PutChar
 277              	.L11:
  45:functions.c   ****             while(UART_ReadTxStatus() & UART_TX_STS_FIFO_NOT_FULL)
 278              		.loc 1 45 0
 279 0090 FFF7FEFF 		bl	UART_ReadTxStatus
ARM GAS  C:\Users\gding\AppData\Local\Temp\ccuFBthr.s 			page 7


 280 0094 0346     		mov	r3, r0
 281 0096 03F00803 		and	r3, r3, #8
 282 009a 002B     		cmp	r3, #0
 283 009c EDD1     		bne	.L12
 284              	.L10:
  44:functions.c   ****         while (i < SEND_DEPTH_LEN){
 285              		.loc 1 44 0
 286 009e 7B6D     		ldr	r3, [r7, #84]
 287 00a0 132B     		cmp	r3, #19
 288 00a2 E9DD     		ble	.L13
  42:functions.c   ****          *flag = 1;
 289              		.loc 1 42 0
 290 00a4 85E0     		b	.L8
 291              	.L9:
  47:functions.c   ****         }
  48:functions.c   ****     } else if (*STATE == WAIT_TO_LAUNCH && !strncmp(RxBuffer, "d:", 2)){
 292              		.loc 1 48 0
 293 00a6 BB68     		ldr	r3, [r7, #8]
 294 00a8 1B78     		ldrb	r3, [r3]	@ zero_extendqisi2
 295 00aa 012B     		cmp	r3, #1
 296 00ac 4AD1     		bne	.L14
 297              		.loc 1 48 0 is_stmt 0 discriminator 1
 298 00ae F868     		ldr	r0, [r7, #12]
 299 00b0 5949     		ldr	r1, .L28+16
 300 00b2 0222     		movs	r2, #2
 301 00b4 FFF7FEFF 		bl	strncmp
 302 00b8 0346     		mov	r3, r0
 303 00ba 002B     		cmp	r3, #0
 304 00bc 42D1     		bne	.L14
  49:functions.c   ****         hunds = RxBuffer[2] - 48;
 305              		.loc 1 49 0 is_stmt 1
 306 00be FB68     		ldr	r3, [r7, #12]
 307 00c0 0233     		adds	r3, r3, #2
 308 00c2 1B78     		ldrb	r3, [r3]	@ zero_extendqisi2
 309 00c4 303B     		subs	r3, r3, #48
 310 00c6 554A     		ldr	r2, .L28+20
 311 00c8 1360     		str	r3, [r2]
  50:functions.c   ****         tens = RxBuffer[3] - 48;
 312              		.loc 1 50 0
 313 00ca FB68     		ldr	r3, [r7, #12]
 314 00cc 0333     		adds	r3, r3, #3
 315 00ce 1B78     		ldrb	r3, [r3]	@ zero_extendqisi2
 316 00d0 303B     		subs	r3, r3, #48
 317 00d2 534A     		ldr	r2, .L28+24
 318 00d4 1360     		str	r3, [r2]
  51:functions.c   ****         ones = RxBuffer[4] - 48;
 319              		.loc 1 51 0
 320 00d6 FB68     		ldr	r3, [r7, #12]
 321 00d8 0433     		adds	r3, r3, #4
 322 00da 1B78     		ldrb	r3, [r3]	@ zero_extendqisi2
 323 00dc 303B     		subs	r3, r3, #48
 324 00de 514A     		ldr	r2, .L28+28
 325 00e0 1360     		str	r3, [r2]
  52:functions.c   ****          
  53:functions.c   ****         if (hunds){ UART_PutChar(RxBuffer[2]); UART_PutChar(RxBuffer[3]);}
 326              		.loc 1 53 0
 327 00e2 4E4B     		ldr	r3, .L28+20
ARM GAS  C:\Users\gding\AppData\Local\Temp\ccuFBthr.s 			page 8


 328 00e4 1B68     		ldr	r3, [r3]
 329 00e6 002B     		cmp	r3, #0
 330 00e8 0CD0     		beq	.L15
 331              		.loc 1 53 0 is_stmt 0 discriminator 1
 332 00ea FB68     		ldr	r3, [r7, #12]
 333 00ec 0233     		adds	r3, r3, #2
 334 00ee 1B78     		ldrb	r3, [r3]	@ zero_extendqisi2
 335 00f0 1846     		mov	r0, r3
 336 00f2 FFF7FEFF 		bl	UART_PutChar
 337 00f6 FB68     		ldr	r3, [r7, #12]
 338 00f8 0333     		adds	r3, r3, #3
 339 00fa 1B78     		ldrb	r3, [r3]	@ zero_extendqisi2
 340 00fc 1846     		mov	r0, r3
 341 00fe FFF7FEFF 		bl	UART_PutChar
 342 0102 09E0     		b	.L16
 343              	.L15:
  54:functions.c   ****         else if (tens) UART_PutChar(RxBuffer[3]);
 344              		.loc 1 54 0 is_stmt 1
 345 0104 464B     		ldr	r3, .L28+24
 346 0106 1B68     		ldr	r3, [r3]
 347 0108 002B     		cmp	r3, #0
 348 010a 05D0     		beq	.L16
 349              		.loc 1 54 0 is_stmt 0 discriminator 1
 350 010c FB68     		ldr	r3, [r7, #12]
 351 010e 0333     		adds	r3, r3, #3
 352 0110 1B78     		ldrb	r3, [r3]	@ zero_extendqisi2
 353 0112 1846     		mov	r0, r3
 354 0114 FFF7FEFF 		bl	UART_PutChar
 355              	.L16:
  55:functions.c   ****         UART_PutChar(RxBuffer[4]);
 356              		.loc 1 55 0 is_stmt 1
 357 0118 FB68     		ldr	r3, [r7, #12]
 358 011a 0433     		adds	r3, r3, #4
 359 011c 1B78     		ldrb	r3, [r3]	@ zero_extendqisi2
 360 011e 1846     		mov	r0, r3
 361 0120 FFF7FEFF 		bl	UART_PutChar
  56:functions.c   ****         
  57:functions.c   ****         return (hunds * 100) + (tens * 10) + ones;
 362              		.loc 1 57 0
 363 0124 3D4B     		ldr	r3, .L28+20
 364 0126 1B68     		ldr	r3, [r3]
 365 0128 6422     		movs	r2, #100
 366 012a 02FB03F1 		mul	r1, r2, r3
 367 012e 3C4B     		ldr	r3, .L28+24
 368 0130 1A68     		ldr	r2, [r3]
 369 0132 1346     		mov	r3, r2
 370 0134 9B00     		lsls	r3, r3, #2
 371 0136 1344     		add	r3, r3, r2
 372 0138 5B00     		lsls	r3, r3, #1
 373 013a CA18     		adds	r2, r1, r3
 374 013c 394B     		ldr	r3, .L28+28
 375 013e 1B68     		ldr	r3, [r3]
 376 0140 1344     		add	r3, r3, r2
 377 0142 5DE0     		b	.L27
 378              	.L14:
  58:functions.c   ****     } else if (*STATE == TRANSMIT && !strncmp(RxBuffer, "data", 4)){ // prompt to start sending dat
 379              		.loc 1 58 0
ARM GAS  C:\Users\gding\AppData\Local\Temp\ccuFBthr.s 			page 9


 380 0144 BB68     		ldr	r3, [r7, #8]
 381 0146 1B78     		ldrb	r3, [r3]	@ zero_extendqisi2
 382 0148 052B     		cmp	r3, #5
 383 014a 0BD1     		bne	.L18
 384              		.loc 1 58 0 is_stmt 0 discriminator 1
 385 014c F868     		ldr	r0, [r7, #12]
 386 014e 3649     		ldr	r1, .L28+32
 387 0150 0422     		movs	r2, #4
 388 0152 FFF7FEFF 		bl	strncmp
 389 0156 0346     		mov	r3, r0
 390 0158 002B     		cmp	r3, #0
 391 015a 03D1     		bne	.L18
  59:functions.c   ****         *flag = 1;
 392              		.loc 1 59 0 is_stmt 1
 393 015c 3B68     		ldr	r3, [r7]
 394 015e 0122     		movs	r2, #1
 395 0160 1A60     		str	r2, [r3]
 396 0162 26E0     		b	.L8
 397              	.L18:
  60:functions.c   ****     } else {
  61:functions.c   ****         while (i < COMMANDS_LEN){
 398              		.loc 1 61 0
 399 0164 12E0     		b	.L19
 400              	.L22:
  62:functions.c   ****             while(UART_ReadTxStatus() & UART_TX_STS_FIFO_NOT_FULL)
 401              		.loc 1 62 0
 402 0166 0AE0     		b	.L20
 403              	.L21:
  63:functions.c   ****                 UART_PutChar(commands[i++]);
 404              		.loc 1 63 0
 405 0168 7B6D     		ldr	r3, [r7, #84]
 406 016a 5A1C     		adds	r2, r3, #1
 407 016c 7A65     		str	r2, [r7, #84]
 408 016e 07F15802 		add	r2, r7, #88
 409 0172 1344     		add	r3, r3, r2
 410 0174 13F8343C 		ldrb	r3, [r3, #-52]	@ zero_extendqisi2
 411 0178 1846     		mov	r0, r3
 412 017a FFF7FEFF 		bl	UART_PutChar
 413              	.L20:
  62:functions.c   ****             while(UART_ReadTxStatus() & UART_TX_STS_FIFO_NOT_FULL)
 414              		.loc 1 62 0
 415 017e FFF7FEFF 		bl	UART_ReadTxStatus
 416 0182 0346     		mov	r3, r0
 417 0184 03F00803 		and	r3, r3, #8
 418 0188 002B     		cmp	r3, #0
 419 018a EDD1     		bne	.L21
 420              	.L19:
  61:functions.c   ****             while(UART_ReadTxStatus() & UART_TX_STS_FIFO_NOT_FULL)
 421              		.loc 1 61 0
 422 018c 7B6D     		ldr	r3, [r7, #84]
 423 018e 2D2B     		cmp	r3, #45
 424 0190 E9DD     		ble	.L22
  64:functions.c   ****         }
  65:functions.c   ****         return (hunds * 100) + (tens * 10) + ones;
 425              		.loc 1 65 0
 426 0192 224B     		ldr	r3, .L28+20
 427 0194 1B68     		ldr	r3, [r3]
ARM GAS  C:\Users\gding\AppData\Local\Temp\ccuFBthr.s 			page 10


 428 0196 6422     		movs	r2, #100
 429 0198 02FB03F1 		mul	r1, r2, r3
 430 019c 204B     		ldr	r3, .L28+24
 431 019e 1A68     		ldr	r2, [r3]
 432 01a0 1346     		mov	r3, r2
 433 01a2 9B00     		lsls	r3, r3, #2
 434 01a4 1344     		add	r3, r3, r2
 435 01a6 5B00     		lsls	r3, r3, #1
 436 01a8 CA18     		adds	r2, r1, r3
 437 01aa 1E4B     		ldr	r3, .L28+28
 438 01ac 1B68     		ldr	r3, [r3]
 439 01ae 1344     		add	r3, r3, r2
 440 01b0 26E0     		b	.L27
 441              	.L8:
  66:functions.c   ****     }
  67:functions.c   ****    
  68:functions.c   ****     while (i < bytes + 3){
 442              		.loc 1 68 0 discriminator 1
 443 01b2 11E0     		b	.L23
 444              	.L26:
  69:functions.c   ****         while(UART_ReadTxStatus() & UART_TX_STS_FIFO_NOT_FULL)
 445              		.loc 1 69 0
 446 01b4 09E0     		b	.L24
 447              	.L25:
  70:functions.c   ****             UART_PutChar(RxBuffer[i++]);
 448              		.loc 1 70 0
 449 01b6 7B6D     		ldr	r3, [r7, #84]
 450 01b8 5A1C     		adds	r2, r3, #1
 451 01ba 7A65     		str	r2, [r7, #84]
 452 01bc 1A46     		mov	r2, r3
 453 01be FB68     		ldr	r3, [r7, #12]
 454 01c0 1344     		add	r3, r3, r2
 455 01c2 1B78     		ldrb	r3, [r3]	@ zero_extendqisi2
 456 01c4 1846     		mov	r0, r3
 457 01c6 FFF7FEFF 		bl	UART_PutChar
 458              	.L24:
  69:functions.c   ****         while(UART_ReadTxStatus() & UART_TX_STS_FIFO_NOT_FULL)
 459              		.loc 1 69 0
 460 01ca FFF7FEFF 		bl	UART_ReadTxStatus
 461 01ce 0346     		mov	r3, r0
 462 01d0 03F00803 		and	r3, r3, #8
 463 01d4 002B     		cmp	r3, #0
 464 01d6 EED1     		bne	.L25
 465              	.L23:
  68:functions.c   ****         while(UART_ReadTxStatus() & UART_TX_STS_FIFO_NOT_FULL)
 466              		.loc 1 68 0
 467 01d8 7B68     		ldr	r3, [r7, #4]
 468 01da DA1C     		adds	r2, r3, #3
 469 01dc 7B6D     		ldr	r3, [r7, #84]
 470 01de 9A42     		cmp	r2, r3
 471 01e0 E8DC     		bgt	.L26
  71:functions.c   ****     }
  72:functions.c   ****     return (hunds * 100) + (tens * 10) + ones;
 472              		.loc 1 72 0
 473 01e2 0E4B     		ldr	r3, .L28+20
 474 01e4 1B68     		ldr	r3, [r3]
 475 01e6 6422     		movs	r2, #100
ARM GAS  C:\Users\gding\AppData\Local\Temp\ccuFBthr.s 			page 11


 476 01e8 02FB03F1 		mul	r1, r2, r3
 477 01ec 0C4B     		ldr	r3, .L28+24
 478 01ee 1A68     		ldr	r2, [r3]
 479 01f0 1346     		mov	r3, r2
 480 01f2 9B00     		lsls	r3, r3, #2
 481 01f4 1344     		add	r3, r3, r2
 482 01f6 5B00     		lsls	r3, r3, #1
 483 01f8 CA18     		adds	r2, r1, r3
 484 01fa 0A4B     		ldr	r3, .L28+28
 485 01fc 1B68     		ldr	r3, [r3]
 486 01fe 1344     		add	r3, r3, r2
 487              	.L27:
  73:functions.c   **** }
 488              		.loc 1 73 0 discriminator 2
 489 0200 1846     		mov	r0, r3
 490 0202 5837     		adds	r7, r7, #88
 491              		.cfi_def_cfa_offset 16
 492 0204 BD46     		mov	sp, r7
 493              		.cfi_def_cfa_register 13
 494              		@ sp needed
 495 0206 B0BD     		pop	{r4, r5, r7, pc}
 496              	.L29:
 497              		.align	2
 498              	.L28:
 499 0208 2C000000 		.word	.LC1
 500 020c 5C000000 		.word	.LC2
 501 0210 10000000 		.word	.LC3
 502 0214 18000000 		.word	.LC4
 503 0218 20000000 		.word	.LC5
 504 021c 00000000 		.word	hunds.8471
 505 0220 04000000 		.word	tens.8470
 506 0224 08000000 		.word	ones.8469
 507 0228 24000000 		.word	.LC6
 508              		.cfi_endproc
 509              	.LFE65:
 510              		.size	BT_Process, .-BT_Process
 511              		.section	.rodata
 512 0071 000000   		.align	2
 513              	.LC7:
 514 0074 53544154 		.ascii	"STATE: WAIT_TO_LAUNCH\012\000"
 514      453A2057 
 514      4149545F 
 514      544F5F4C 
 514      41554E43 
 515 008b 00       		.space	1
 516              		.align	2
 517              	.LC8:
 518 008c 5472616E 		.ascii	"Transmitting data\012\000"
 518      736D6974 
 518      74696E67 
 518      20646174 
 518      610A00
 519 009f 00       		.section	.text.BT_Send,"ax",%progbits
 520              		.align	2
 521              		.global	BT_Send
 522              		.thumb
 523              		.thumb_func
ARM GAS  C:\Users\gding\AppData\Local\Temp\ccuFBthr.s 			page 12


 524              		.type	BT_Send, %function
 525              	BT_Send:
 526              	.LFB66:
  74:functions.c   **** 
  75:functions.c   **** /* For sending status of State, or data back in transmit state */
  76:functions.c   **** void BT_Send(char *TxBuffer, STATES *STATE, int lengthOfBuf, int *firstPacket){
 527              		.loc 1 76 0
 528              		.cfi_startproc
 529              		@ args = 0, pretend = 0, frame = 64
 530              		@ frame_needed = 1, uses_anonymous_args = 0
 531 0000 B0B5     		push	{r4, r5, r7, lr}
 532              		.cfi_def_cfa_offset 16
 533              		.cfi_offset 4, -16
 534              		.cfi_offset 5, -12
 535              		.cfi_offset 7, -8
 536              		.cfi_offset 14, -4
 537 0002 90B0     		sub	sp, sp, #64
 538              		.cfi_def_cfa_offset 80
 539 0004 00AF     		add	r7, sp, #0
 540              		.cfi_def_cfa_register 7
 541 0006 F860     		str	r0, [r7, #12]
 542 0008 B960     		str	r1, [r7, #8]
 543 000a 7A60     		str	r2, [r7, #4]
 544 000c 3B60     		str	r3, [r7]
  77:functions.c   ****     int i = 0;
 545              		.loc 1 77 0
 546 000e 0023     		movs	r3, #0
 547 0010 FB63     		str	r3, [r7, #60]
  78:functions.c   ****     uint8 waitstate[WAITING_LEN] = STATE_WAITING;
 548              		.loc 1 78 0
 549 0012 2E4B     		ldr	r3, .L42
 550 0014 07F12404 		add	r4, r7, #36
 551 0018 1D46     		mov	r5, r3
 552 001a 0FCD     		ldmia	r5!, {r0, r1, r2, r3}
 553 001c 0FC4     		stmia	r4!, {r0, r1, r2, r3}
 554 001e 95E80300 		ldmia	r5, {r0, r1}
 555 0022 2060     		str	r0, [r4]
 556 0024 0434     		adds	r4, r4, #4
 557 0026 2180     		strh	r1, [r4]	@ movhi
 558 0028 0234     		adds	r4, r4, #2
 559 002a 0B0C     		lsrs	r3, r1, #16
 560 002c 2370     		strb	r3, [r4]
 561 002e 0023     		movs	r3, #0
 562 0030 87F83B30 		strb	r3, [r7, #59]
  79:functions.c   ****     uint8 transtate[TRANSMITTING_LEN] = TRANSMITTING;
 563              		.loc 1 79 0
 564 0034 264B     		ldr	r3, .L42+4
 565 0036 07F11004 		add	r4, r7, #16
 566 003a 1D46     		mov	r5, r3
 567 003c 0FCD     		ldmia	r5!, {r0, r1, r2, r3}
 568 003e 0FC4     		stmia	r4!, {r0, r1, r2, r3}
 569 0040 2B68     		ldr	r3, [r5]
 570 0042 2380     		strh	r3, [r4]	@ movhi
  80:functions.c   ****     
  81:functions.c   ****     if (*STATE == WAIT_TO_LAUNCH){                  // Just send STATE back to indicate
 571              		.loc 1 81 0
 572 0044 BB68     		ldr	r3, [r7, #8]
ARM GAS  C:\Users\gding\AppData\Local\Temp\ccuFBthr.s 			page 13


 573 0046 1B78     		ldrb	r3, [r3]	@ zero_extendqisi2
 574 0048 012B     		cmp	r3, #1
 575 004a 17D1     		bne	.L31
  82:functions.c   ****         while (i < WAITING_LEN - 1){
 576              		.loc 1 82 0
 577 004c 12E0     		b	.L32
 578              	.L35:
  83:functions.c   ****             while(UART_ReadTxStatus() & UART_TX_STS_FIFO_NOT_FULL)
 579              		.loc 1 83 0
 580 004e 0AE0     		b	.L33
 581              	.L34:
  84:functions.c   ****                 UART_PutChar(waitstate[i++]);
 582              		.loc 1 84 0
 583 0050 FB6B     		ldr	r3, [r7, #60]
 584 0052 5A1C     		adds	r2, r3, #1
 585 0054 FA63     		str	r2, [r7, #60]
 586 0056 07F14002 		add	r2, r7, #64
 587 005a 1344     		add	r3, r3, r2
 588 005c 13F81C3C 		ldrb	r3, [r3, #-28]	@ zero_extendqisi2
 589 0060 1846     		mov	r0, r3
 590 0062 FFF7FEFF 		bl	UART_PutChar
 591              	.L33:
  83:functions.c   ****             while(UART_ReadTxStatus() & UART_TX_STS_FIFO_NOT_FULL)
 592              		.loc 1 83 0
 593 0066 FFF7FEFF 		bl	UART_ReadTxStatus
 594 006a 0346     		mov	r3, r0
 595 006c 03F00803 		and	r3, r3, #8
 596 0070 002B     		cmp	r3, #0
 597 0072 EDD1     		bne	.L34
 598              	.L32:
  82:functions.c   ****         while (i < WAITING_LEN - 1){
 599              		.loc 1 82 0
 600 0074 FB6B     		ldr	r3, [r7, #60]
 601 0076 162B     		cmp	r3, #22
 602 0078 E9DD     		ble	.L35
 603 007a 23E0     		b	.L30
 604              	.L31:
  85:functions.c   ****         }
  86:functions.c   ****     }
  87:functions.c   ****     else if (*STATE == TRANSMIT){                   // Send STATE back then data from buffer
 605              		.loc 1 87 0
 606 007c BB68     		ldr	r3, [r7, #8]
 607 007e 1B78     		ldrb	r3, [r3]	@ zero_extendqisi2
 608 0080 052B     		cmp	r3, #5
 609 0082 1FD1     		bne	.L30
  88:functions.c   ****         if (*firstPacket){                          // only send STATE once
 610              		.loc 1 88 0
 611 0084 3B68     		ldr	r3, [r7]
 612 0086 1B68     		ldr	r3, [r3]
 613 0088 002B     		cmp	r3, #0
 614 008a 19D0     		beq	.L37
  89:functions.c   ****             while (i < TRANSMITTING_LEN - 1){
 615              		.loc 1 89 0
 616 008c 12E0     		b	.L38
 617              	.L41:
  90:functions.c   ****                 while(UART_ReadTxStatus() & UART_TX_STS_FIFO_NOT_FULL)
 618              		.loc 1 90 0
ARM GAS  C:\Users\gding\AppData\Local\Temp\ccuFBthr.s 			page 14


 619 008e 0AE0     		b	.L39
 620              	.L40:
  91:functions.c   ****                     UART_PutChar(transtate[i++]);
 621              		.loc 1 91 0
 622 0090 FB6B     		ldr	r3, [r7, #60]
 623 0092 5A1C     		adds	r2, r3, #1
 624 0094 FA63     		str	r2, [r7, #60]
 625 0096 07F14002 		add	r2, r7, #64
 626 009a 1344     		add	r3, r3, r2
 627 009c 13F8303C 		ldrb	r3, [r3, #-48]	@ zero_extendqisi2
 628 00a0 1846     		mov	r0, r3
 629 00a2 FFF7FEFF 		bl	UART_PutChar
 630              	.L39:
  90:functions.c   ****                 while(UART_ReadTxStatus() & UART_TX_STS_FIFO_NOT_FULL)
 631              		.loc 1 90 0
 632 00a6 FFF7FEFF 		bl	UART_ReadTxStatus
 633 00aa 0346     		mov	r3, r0
 634 00ac 03F00803 		and	r3, r3, #8
 635 00b0 002B     		cmp	r3, #0
 636 00b2 EDD1     		bne	.L40
 637              	.L38:
  89:functions.c   ****             while (i < TRANSMITTING_LEN - 1){
 638              		.loc 1 89 0
 639 00b4 FB6B     		ldr	r3, [r7, #60]
 640 00b6 102B     		cmp	r3, #16
 641 00b8 E9DD     		ble	.L41
  92:functions.c   ****             }
  93:functions.c   ****             *firstPacket = 0;
 642              		.loc 1 93 0
 643 00ba 3B68     		ldr	r3, [r7]
 644 00bc 0022     		movs	r2, #0
 645 00be 1A60     		str	r2, [r3]
 646              	.L37:
  94:functions.c   ****         } i = 0;
 647              		.loc 1 94 0
 648 00c0 0023     		movs	r3, #0
 649 00c2 FB63     		str	r3, [r7, #60]
 650              	.L30:
  95:functions.c   **** //        while (i < lengthOfBuf - 1){                // Send buffer 
  96:functions.c   **** //            while(UART_ReadTxStatus() & UART_TX_STS_FIFO_NOT_FULL)
  97:functions.c   **** //                UART_PutChar(TxBuffer[i++]);
  98:functions.c   **** //        }
  99:functions.c   ****     }
 100:functions.c   **** }
 651              		.loc 1 100 0
 652 00c4 4037     		adds	r7, r7, #64
 653              		.cfi_def_cfa_offset 16
 654 00c6 BD46     		mov	sp, r7
 655              		.cfi_def_cfa_register 13
 656              		@ sp needed
 657 00c8 B0BD     		pop	{r4, r5, r7, pc}
 658              	.L43:
 659 00ca 00BF     		.align	2
 660              	.L42:
 661 00cc 74000000 		.word	.LC7
 662 00d0 8C000000 		.word	.LC8
 663              		.cfi_endproc
ARM GAS  C:\Users\gding\AppData\Local\Temp\ccuFBthr.s 			page 15


 664              	.LFE66:
 665              		.size	BT_Send, .-BT_Send
 666              		.section	.text.uint8_to_char,"ax",%progbits
 667              		.align	2
 668              		.global	uint8_to_char
 669              		.thumb
 670              		.thumb_func
 671              		.type	uint8_to_char, %function
 672              	uint8_to_char:
 673              	.LFB67:
 101:functions.c   **** 
 102:functions.c   **** /* Convert uint8 array to chars, for type warnings/errors in above functions*/
 103:functions.c   **** void uint8_to_char(uint8_t a[], char *b, int len){
 674              		.loc 1 103 0
 675              		.cfi_startproc
 676              		@ args = 0, pretend = 0, frame = 24
 677              		@ frame_needed = 1, uses_anonymous_args = 0
 678              		@ link register save eliminated.
 679 0000 80B4     		push	{r7}
 680              		.cfi_def_cfa_offset 4
 681              		.cfi_offset 7, -4
 682 0002 87B0     		sub	sp, sp, #28
 683              		.cfi_def_cfa_offset 32
 684 0004 00AF     		add	r7, sp, #0
 685              		.cfi_def_cfa_register 7
 686 0006 F860     		str	r0, [r7, #12]
 687 0008 B960     		str	r1, [r7, #8]
 688 000a 7A60     		str	r2, [r7, #4]
 104:functions.c   ****     int i = 0;
 689              		.loc 1 104 0
 690 000c 0023     		movs	r3, #0
 691 000e 7B61     		str	r3, [r7, #20]
 105:functions.c   ****     for (;i < len; i++){
 692              		.loc 1 105 0
 693 0010 0AE0     		b	.L45
 694              	.L46:
 106:functions.c   ****         b[i] = (char)a[i];
 695              		.loc 1 106 0 discriminator 2
 696 0012 7B69     		ldr	r3, [r7, #20]
 697 0014 BA68     		ldr	r2, [r7, #8]
 698 0016 1344     		add	r3, r3, r2
 699 0018 7A69     		ldr	r2, [r7, #20]
 700 001a F968     		ldr	r1, [r7, #12]
 701 001c 0A44     		add	r2, r2, r1
 702 001e 1278     		ldrb	r2, [r2]	@ zero_extendqisi2
 703 0020 1A70     		strb	r2, [r3]
 105:functions.c   ****     for (;i < len; i++){
 704              		.loc 1 105 0 discriminator 2
 705 0022 7B69     		ldr	r3, [r7, #20]
 706 0024 0133     		adds	r3, r3, #1
 707 0026 7B61     		str	r3, [r7, #20]
 708              	.L45:
 105:functions.c   ****     for (;i < len; i++){
 709              		.loc 1 105 0 is_stmt 0 discriminator 1
 710 0028 7A69     		ldr	r2, [r7, #20]
 711 002a 7B68     		ldr	r3, [r7, #4]
 712 002c 9A42     		cmp	r2, r3
ARM GAS  C:\Users\gding\AppData\Local\Temp\ccuFBthr.s 			page 16


 713 002e F0DB     		blt	.L46
 107:functions.c   ****     }
 108:functions.c   **** }
 714              		.loc 1 108 0 is_stmt 1
 715 0030 1C37     		adds	r7, r7, #28
 716              		.cfi_def_cfa_offset 4
 717 0032 BD46     		mov	sp, r7
 718              		.cfi_def_cfa_register 13
 719              		@ sp needed
 720 0034 5DF8047B 		ldr	r7, [sp], #4
 721              		.cfi_restore 7
 722              		.cfi_def_cfa_offset 0
 723 0038 7047     		bx	lr
 724              		.cfi_endproc
 725              	.LFE67:
 726              		.size	uint8_to_char, .-uint8_to_char
 727 003a 00BF     		.bss
 728              		.align	2
 729              	hunds.8471:
 730 0000 00000000 		.space	4
 731              		.align	2
 732              	tens.8470:
 733 0004 00000000 		.space	4
 734              		.align	2
 735              	ones.8469:
 736 0008 00000000 		.space	4
 737              		.text
 738              	.Letext0:
 739              		.file 2 "c:\\program files (x86)\\cypress\\psoc creator\\4.0\\psoc creator\\import\\gnu\\arm\\4.9.
 740              		.file 3 "c:\\program files (x86)\\cypress\\psoc creator\\4.0\\psoc creator\\import\\gnu\\arm\\4.9.
 741              		.file 4 "functions.h"
 742              		.file 5 "Generated_Source\\PSoC5/cytypes.h"
 743              		.file 6 "Generated_Source\\PSoC5/core_cm3.h"