ARM GAS  C:\Users\gding\AppData\Local\Temp\ccNFfvQU.s 			page 1


   1              		.syntax unified
   2              		.cpu cortex-m3
   3              		.fpu softvfp
   4              		.eabi_attribute 20, 1
   5              		.eabi_attribute 21, 1
   6              		.eabi_attribute 23, 3
   7              		.eabi_attribute 24, 1
   8              		.eabi_attribute 25, 1
   9              		.eabi_attribute 26, 1
  10              		.eabi_attribute 30, 1
  11              		.eabi_attribute 34, 1
  12              		.eabi_attribute 18, 4
  13              		.thumb
  14              		.file	"functions.c"
  15              		.text
  16              	.Ltext0:
  17              		.cfi_sections	.debug_frame
  18              		.global	__aeabi_i2f
  19              		.global	__aeabi_fdiv
  20              		.global	__aeabi_fsub
  21              		.global	__aeabi_fadd
  22              		.section	.text.ComputeMA,"ax",%progbits
  23              		.align	2
  24              		.global	ComputeMA
  25              		.thumb
  26              		.thumb_func
  27              		.type	ComputeMA, %function
  28              	ComputeMA:
  29              	.LFB63:
  30              		.file 1 "functions.c"
   1:functions.c   **** /* ========================================
   2:functions.c   ****  *
   3:functions.c   ****  * Copyright YOUR COMPANY, THE YEAR
   4:functions.c   ****  * All Rights Reserved
   5:functions.c   ****  * UNPUBLISHED, LICENSED SOFTWARE.
   6:functions.c   ****  *
   7:functions.c   ****  * CONFIDENTIAL AND PROPRIETARY INFORMATION
   8:functions.c   ****  * WHICH IS THE PROPERTY OF your company.
   9:functions.c   ****  *
  10:functions.c   ****  * ========================================
  11:functions.c   **** */
  12:functions.c   **** #include <stdint.h>
  13:functions.c   **** #include <stdio.h>
  14:functions.c   **** #include <math.h>
  15:functions.c   **** #include "functions.h"
  16:functions.c   **** #include "LiquidCrystal_I2C.h"
  17:functions.c   **** 
  18:functions.c   **** char accelData[10];
  19:functions.c   **** 
  20:functions.c   **** float ComputeMA(float avg, int16_t n, float sample){
  31              		.loc 1 20 0
  32              		.cfi_startproc
  33              		@ args = 0, pretend = 0, frame = 0
  34              		@ frame_needed = 0, uses_anonymous_args = 0
  35              	.LVL0:
  36 0000 70B5     		push	{r4, r5, r6, lr}
  37              		.cfi_def_cfa_offset 16
ARM GAS  C:\Users\gding\AppData\Local\Temp\ccNFfvQU.s 			page 2


  38              		.cfi_offset 4, -16
  39              		.cfi_offset 5, -12
  40              		.cfi_offset 6, -8
  41              		.cfi_offset 14, -4
  42 0002 0546     		mov	r5, r0
  43 0004 1646     		mov	r6, r2
  21:functions.c   ****     avg -= avg/n;
  44              		.loc 1 21 0
  45 0006 0846     		mov	r0, r1
  46              	.LVL1:
  47 0008 FFF7FEFF 		bl	__aeabi_i2f
  48              	.LVL2:
  49 000c 0446     		mov	r4, r0
  50 000e 2846     		mov	r0, r5
  51 0010 2146     		mov	r1, r4
  52 0012 FFF7FEFF 		bl	__aeabi_fdiv
  53              	.LVL3:
  54 0016 0146     		mov	r1, r0
  55 0018 2846     		mov	r0, r5
  56 001a FFF7FEFF 		bl	__aeabi_fsub
  57              	.LVL4:
  58 001e 0546     		mov	r5, r0
  59              	.LVL5:
  22:functions.c   ****     avg += sample/n;
  60              		.loc 1 22 0
  61 0020 3046     		mov	r0, r6
  62              	.LVL6:
  63 0022 2146     		mov	r1, r4
  64 0024 FFF7FEFF 		bl	__aeabi_fdiv
  65              	.LVL7:
  66 0028 2946     		mov	r1, r5
  67 002a FFF7FEFF 		bl	__aeabi_fadd
  68              	.LVL8:
  23:functions.c   ****     return avg;    
  24:functions.c   **** }
  69              		.loc 1 24 0
  70 002e 70BD     		pop	{r4, r5, r6, pc}
  71              		.cfi_endproc
  72              	.LFE63:
  73              		.size	ComputeMA, .-ComputeMA
  74              		.section	.text.BT_Process,"ax",%progbits
  75              		.align	2
  76              		.global	BT_Process
  77              		.thumb
  78              		.thumb_func
  79              		.type	BT_Process, %function
  80              	BT_Process:
  81              	.LFB64:
  25:functions.c   **** 
  26:functions.c   **** /* Process an incoming message, only for WAIT, TRANSMIT states, or for a reset of the system */
  27:functions.c   **** int BT_Process(char *RxBuffer, int bytes, int *reset){
  82              		.loc 1 27 0
  83              		.cfi_startproc
  84              		@ args = 0, pretend = 0, frame = 48
  85              		@ frame_needed = 0, uses_anonymous_args = 0
  86              	.LVL9:
  87 0000 2DE9F041 		push	{r4, r5, r6, r7, r8, lr}
ARM GAS  C:\Users\gding\AppData\Local\Temp\ccNFfvQU.s 			page 3


  88              		.cfi_def_cfa_offset 24
  89              		.cfi_offset 4, -24
  90              		.cfi_offset 5, -20
  91              		.cfi_offset 6, -16
  92              		.cfi_offset 7, -12
  93              		.cfi_offset 8, -8
  94              		.cfi_offset 14, -4
  95 0004 8CB0     		sub	sp, sp, #48
  96              		.cfi_def_cfa_offset 72
  97 0006 0646     		mov	r6, r0
  98 0008 0F46     		mov	r7, r1
  99 000a 9046     		mov	r8, r2
 100              	.LVL10:
  28:functions.c   ****     int i = 0;
  29:functions.c   ****     char commands[COMMANDS_LEN] = COMMANDS;
 101              		.loc 1 29 0
 102 000c 6C46     		mov	r4, sp
 103 000e 1B4D     		ldr	r5, .L13
 104 0010 0FCD     		ldmia	r5!, {r0, r1, r2, r3}
 105              	.LVL11:
 106 0012 0FC4     		stmia	r4!, {r0, r1, r2, r3}
 107 0014 0FCD     		ldmia	r5!, {r0, r1, r2, r3}
 108 0016 0FC4     		stmia	r4!, {r0, r1, r2, r3}
 109 0018 95E80F00 		ldmia	r5, {r0, r1, r2, r3}
 110 001c 07C4     		stmia	r4!, {r0, r1, r2}
 111 001e 2380     		strh	r3, [r4]	@ movhi
  30:functions.c   ****     if (!strncmp(RxBuffer, "reset", 5)){                      // stop/reset program, go back to WAI
 112              		.loc 1 30 0
 113 0020 3046     		mov	r0, r6
 114 0022 1749     		ldr	r1, .L13+4
 115 0024 0522     		movs	r2, #5
 116 0026 FFF7FEFF 		bl	strncmp
 117              	.LVL12:
 118 002a 90B9     		cbnz	r0, .L11
  31:functions.c   ****         *reset = 1;
 119              		.loc 1 31 0
 120 002c 0123     		movs	r3, #1
 121 002e C8F80030 		str	r3, [r8]
  28:functions.c   ****     int i = 0;
 122              		.loc 1 28 0
 123 0032 0024     		movs	r4, #0
  32:functions.c   ****     } else {
  33:functions.c   ****         while (i < COMMANDS_LEN){
  34:functions.c   ****             while(UART_ReadTxStatus() & UART_TX_STS_FIFO_NOT_FULL)
  35:functions.c   ****                 UART_PutChar(commands[i++]);
  36:functions.c   ****         }
  37:functions.c   ****         return 0;
  38:functions.c   ****     }
  39:functions.c   ****    
  40:functions.c   ****     while (i < bytes + 3){
 124              		.loc 1 40 0
 125 0034 1BE0     		b	.L5
 126              	.LVL13:
 127              	.L6:
  35:functions.c   ****         }
 128              		.loc 1 35 0
 129 0036 651C     		adds	r5, r4, #1
ARM GAS  C:\Users\gding\AppData\Local\Temp\ccNFfvQU.s 			page 4


 130              	.LVL14:
 131 0038 0CAB     		add	r3, sp, #48
 132 003a 1C44     		add	r4, r4, r3
 133 003c 14F8300C 		ldrb	r0, [r4, #-48]	@ zero_extendqisi2
 134 0040 FFF7FEFF 		bl	UART_PutChar
 135              	.LVL15:
 136 0044 2C46     		mov	r4, r5
 137              	.LVL16:
 138              	.L7:
  34:functions.c   ****                 UART_PutChar(commands[i++]);
 139              		.loc 1 34 0
 140 0046 FFF7FEFF 		bl	UART_ReadTxStatus
 141              	.LVL17:
 142 004a 10F0080F 		tst	r0, #8
 143 004e F2D1     		bne	.L6
 144 0050 00E0     		b	.L4
 145              	.LVL18:
 146              	.L11:
 147 0052 0024     		movs	r4, #0
 148              	.LVL19:
 149              	.L4:
  33:functions.c   ****             while(UART_ReadTxStatus() & UART_TX_STS_FIFO_NOT_FULL)
 150              		.loc 1 33 0
 151 0054 2D2C     		cmp	r4, #45
 152 0056 F6DD     		ble	.L7
 153 0058 0CE0     		b	.L8
 154              	.L9:
  41:functions.c   ****         while(UART_ReadTxStatus() & UART_TX_STS_FIFO_NOT_FULL)
  42:functions.c   ****             UART_PutChar(RxBuffer[i++]);
 155              		.loc 1 42 0
 156 005a 651C     		adds	r5, r4, #1
 157              	.LVL20:
 158 005c 305D     		ldrb	r0, [r6, r4]	@ zero_extendqisi2
 159 005e FFF7FEFF 		bl	UART_PutChar
 160              	.LVL21:
 161 0062 2C46     		mov	r4, r5
 162              	.LVL22:
 163              	.L10:
  41:functions.c   ****         while(UART_ReadTxStatus() & UART_TX_STS_FIFO_NOT_FULL)
 164              		.loc 1 41 0
 165 0064 FFF7FEFF 		bl	UART_ReadTxStatus
 166              	.LVL23:
 167 0068 10F0080F 		tst	r0, #8
 168 006c F5D1     		bne	.L9
 169              	.LVL24:
 170              	.L5:
  40:functions.c   ****         while(UART_ReadTxStatus() & UART_TX_STS_FIFO_NOT_FULL)
 171              		.loc 1 40 0
 172 006e FB1C     		adds	r3, r7, #3
 173 0070 A342     		cmp	r3, r4
 174 0072 F7DC     		bgt	.L10
 175              	.L8:
  43:functions.c   ****     }
  44:functions.c   ****     return 0;
  45:functions.c   **** }
 176              		.loc 1 45 0
 177 0074 0020     		movs	r0, #0
ARM GAS  C:\Users\gding\AppData\Local\Temp\ccNFfvQU.s 			page 5


 178 0076 0CB0     		add	sp, sp, #48
 179              		.cfi_def_cfa_offset 24
 180              		@ sp needed
 181 0078 BDE8F081 		pop	{r4, r5, r6, r7, r8, pc}
 182              	.LVL25:
 183              	.L14:
 184              		.align	2
 185              	.L13:
 186 007c 00000000 		.word	.LANCHOR0
 187 0080 00000000 		.word	.LC1
 188              		.cfi_endproc
 189              	.LFE64:
 190              		.size	BT_Process, .-BT_Process
 191              		.section	.text.BT_Send,"ax",%progbits
 192              		.align	2
 193              		.global	BT_Send
 194              		.thumb
 195              		.thumb_func
 196              		.type	BT_Send, %function
 197              	BT_Send:
 198              	.LFB65:
  46:functions.c   **** 
  47:functions.c   **** /* For sending status of State, or data back in transmit state */
  48:functions.c   **** void BT_Send(char *TxBuffer, STATES *STATE, int lengthOfBuf, int *firstPacket){
 199              		.loc 1 48 0
 200              		.cfi_startproc
 201              		@ args = 0, pretend = 0, frame = 48
 202              		@ frame_needed = 0, uses_anonymous_args = 0
 203              	.LVL26:
 204 0000 F0B5     		push	{r4, r5, r6, r7, lr}
 205              		.cfi_def_cfa_offset 20
 206              		.cfi_offset 4, -20
 207              		.cfi_offset 5, -16
 208              		.cfi_offset 6, -12
 209              		.cfi_offset 7, -8
 210              		.cfi_offset 14, -4
 211 0002 8DB0     		sub	sp, sp, #52
 212              		.cfi_def_cfa_offset 72
 213 0004 8E46     		mov	lr, r1
 214 0006 1F46     		mov	r7, r3
 215              	.LVL27:
  49:functions.c   ****     int i = 0;
  50:functions.c   ****     uint8 waitstate[WAITING_LEN] = STATE_WAITING;
 216              		.loc 1 50 0
 217 0008 244D     		ldr	r5, .L28
 218 000a 06AC     		add	r4, sp, #24
 219 000c 05F13006 		add	r6, r5, #48
 220 0010 0FCE     		ldmia	r6!, {r0, r1, r2, r3}
 221              	.LVL28:
 222 0012 0FC4     		stmia	r4!, {r0, r1, r2, r3}
 223 0014 96E80300 		ldmia	r6, {r0, r1}
 224 0018 44F8040B 		str	r0, [r4], #4
 225 001c 24F8021B 		strh	r1, [r4], #2	@ movhi
 226 0020 090C     		lsrs	r1, r1, #16
 227 0022 2170     		strb	r1, [r4]
 228 0024 0023     		movs	r3, #0
 229 0026 8DF82F30 		strb	r3, [sp, #47]
ARM GAS  C:\Users\gding\AppData\Local\Temp\ccNFfvQU.s 			page 6


  51:functions.c   ****     uint8 transtate[TRANSMITTING_LEN] = TRANSMITTING;
 230              		.loc 1 51 0
 231 002a 01AE     		add	r6, sp, #4
 232 002c 05F14804 		add	r4, r5, #72
 233 0030 0FCC     		ldmia	r4!, {r0, r1, r2, r3}
 234 0032 0FC6     		stmia	r6!, {r0, r1, r2, r3}
 235 0034 2368     		ldr	r3, [r4]
 236 0036 3380     		strh	r3, [r6]	@ movhi
  52:functions.c   ****     
  53:functions.c   ****     if (*STATE == WAIT_TO_LAUNCH){                  // Just send STATE back to indicate
 237              		.loc 1 53 0
 238 0038 9EF80030 		ldrb	r3, [lr]	@ zero_extendqisi2
 239 003c 012B     		cmp	r3, #1
 240 003e 12D1     		bne	.L26
 241 0040 0DE0     		b	.L24
 242              	.LVL29:
 243              	.L18:
  54:functions.c   ****         while (i < WAITING_LEN - 1){
  55:functions.c   ****             while(UART_ReadTxStatus() & UART_TX_STS_FIFO_NOT_FULL)
  56:functions.c   ****                 UART_PutChar(waitstate[i++]);
 244              		.loc 1 56 0
 245 0042 651C     		adds	r5, r4, #1
 246              	.LVL30:
 247 0044 0CAB     		add	r3, sp, #48
 248 0046 1C44     		add	r4, r4, r3
 249 0048 14F8180C 		ldrb	r0, [r4, #-24]	@ zero_extendqisi2
 250 004c FFF7FEFF 		bl	UART_PutChar
 251              	.LVL31:
 252 0050 2C46     		mov	r4, r5
 253              	.LVL32:
 254              	.L19:
  55:functions.c   ****                 UART_PutChar(waitstate[i++]);
 255              		.loc 1 55 0
 256 0052 FFF7FEFF 		bl	UART_ReadTxStatus
 257              	.LVL33:
 258 0056 10F0080F 		tst	r0, #8
 259 005a F2D1     		bne	.L18
 260 005c 00E0     		b	.L16
 261              	.LVL34:
 262              	.L24:
 263 005e 0024     		movs	r4, #0
 264              	.LVL35:
 265              	.L16:
  54:functions.c   ****         while (i < WAITING_LEN - 1){
 266              		.loc 1 54 0
 267 0060 162C     		cmp	r4, #22
 268 0062 F6DD     		ble	.L19
 269 0064 17E0     		b	.L15
 270              	.LVL36:
 271              	.L26:
  57:functions.c   ****         }
  58:functions.c   ****     }
  59:functions.c   ****     else if (*STATE == TRANSMIT){                   // Send STATE back then data from buffer
 272              		.loc 1 59 0
 273 0066 052B     		cmp	r3, #5
 274 0068 15D1     		bne	.L15
  60:functions.c   ****         if (*firstPacket){                          // only send STATE once
ARM GAS  C:\Users\gding\AppData\Local\Temp\ccNFfvQU.s 			page 7


 275              		.loc 1 60 0
 276 006a 3B68     		ldr	r3, [r7]
 277 006c 73B9     		cbnz	r3, .L25
 278 006e 12E0     		b	.L15
 279              	.LVL37:
 280              	.L22:
  61:functions.c   ****             while (i < TRANSMITTING_LEN - 1){
  62:functions.c   ****                 while(UART_ReadTxStatus() & UART_TX_STS_FIFO_NOT_FULL)
  63:functions.c   ****                     UART_PutChar(transtate[i++]);
 281              		.loc 1 63 0
 282 0070 651C     		adds	r5, r4, #1
 283              	.LVL38:
 284 0072 0CAB     		add	r3, sp, #48
 285 0074 1C44     		add	r4, r4, r3
 286 0076 14F82C0C 		ldrb	r0, [r4, #-44]	@ zero_extendqisi2
 287 007a FFF7FEFF 		bl	UART_PutChar
 288              	.LVL39:
 289 007e 2C46     		mov	r4, r5
 290              	.LVL40:
 291              	.L23:
  62:functions.c   ****                     UART_PutChar(transtate[i++]);
 292              		.loc 1 62 0
 293 0080 FFF7FEFF 		bl	UART_ReadTxStatus
 294              	.LVL41:
 295 0084 10F0080F 		tst	r0, #8
 296 0088 F2D1     		bne	.L22
 297 008a 00E0     		b	.L21
 298              	.LVL42:
 299              	.L25:
 300 008c 0024     		movs	r4, #0
 301              	.LVL43:
 302              	.L21:
  61:functions.c   ****             while (i < TRANSMITTING_LEN - 1){
 303              		.loc 1 61 0
 304 008e 102C     		cmp	r4, #16
 305 0090 F6DD     		ble	.L23
  64:functions.c   ****             }
  65:functions.c   ****             *firstPacket = 0;
 306              		.loc 1 65 0
 307 0092 0023     		movs	r3, #0
 308 0094 3B60     		str	r3, [r7]
 309              	.LVL44:
 310              	.L15:
  66:functions.c   ****         } i = 0;
  67:functions.c   **** //        while (i < lengthOfBuf - 1){                // Send buffer 
  68:functions.c   **** //            while(UART_ReadTxStatus() & UART_TX_STS_FIFO_NOT_FULL)
  69:functions.c   **** //                UART_PutChar(TxBuffer[i++]);
  70:functions.c   **** //        }
  71:functions.c   ****     }
  72:functions.c   **** }
 311              		.loc 1 72 0
 312 0096 0DB0     		add	sp, sp, #52
 313              		.cfi_def_cfa_offset 20
 314              		@ sp needed
 315 0098 F0BD     		pop	{r4, r5, r6, r7, pc}
 316              	.LVL45:
 317              	.L29:
ARM GAS  C:\Users\gding\AppData\Local\Temp\ccNFfvQU.s 			page 8


 318 009a 00BF     		.align	2
 319              	.L28:
 320 009c 00000000 		.word	.LANCHOR0
 321              		.cfi_endproc
 322              	.LFE65:
 323              		.size	BT_Send, .-BT_Send
 324              		.section	.text.uint8_to_char,"ax",%progbits
 325              		.align	2
 326              		.global	uint8_to_char
 327              		.thumb
 328              		.thumb_func
 329              		.type	uint8_to_char, %function
 330              	uint8_to_char:
 331              	.LFB66:
  73:functions.c   **** 
  74:functions.c   **** /* Convert uint8 array to chars, for type warnings/errors in above functions*/
  75:functions.c   **** void uint8_to_char(uint8_t a[], char *b, int len){
 332              		.loc 1 75 0
 333              		.cfi_startproc
 334              		@ args = 0, pretend = 0, frame = 0
 335              		@ frame_needed = 0, uses_anonymous_args = 0
 336              		@ link register save eliminated.
 337              	.LVL46:
 338 0000 10B4     		push	{r4}
 339              		.cfi_def_cfa_offset 4
 340              		.cfi_offset 4, -4
 341              	.LVL47:
  76:functions.c   ****     int i = 0;
 342              		.loc 1 76 0
 343 0002 0023     		movs	r3, #0
  77:functions.c   ****     for (;i < len; i++){
 344              		.loc 1 77 0
 345 0004 02E0     		b	.L31
 346              	.LVL48:
 347              	.L32:
  78:functions.c   ****         b[i] = (char)a[i];
 348              		.loc 1 78 0 discriminator 2
 349 0006 C45C     		ldrb	r4, [r0, r3]	@ zero_extendqisi2
 350 0008 CC54     		strb	r4, [r1, r3]
  77:functions.c   ****     for (;i < len; i++){
 351              		.loc 1 77 0 discriminator 2
 352 000a 0133     		adds	r3, r3, #1
 353              	.LVL49:
 354              	.L31:
  77:functions.c   ****     for (;i < len; i++){
 355              		.loc 1 77 0 is_stmt 0 discriminator 1
 356 000c 9342     		cmp	r3, r2
 357 000e FADB     		blt	.L32
  79:functions.c   ****     }
  80:functions.c   **** }
 358              		.loc 1 80 0 is_stmt 1
 359 0010 5DF8044B 		ldr	r4, [sp], #4
 360              		.cfi_restore 4
 361              		.cfi_def_cfa_offset 0
 362 0014 7047     		bx	lr
 363              		.cfi_endproc
 364              	.LFE66:
ARM GAS  C:\Users\gding\AppData\Local\Temp\ccNFfvQU.s 			page 9


 365              		.size	uint8_to_char, .-uint8_to_char
 366              		.comm	accelData,10,4
 367 0016 00BF     		.section	.rodata
 368              		.align	2
 369              		.set	.LANCHOR0,. + 0
 370              	.LC0:
 371 0000 0A636F6D 		.ascii	"\012commands: \01205,start\01205,reset\01204,data\012"
 371      6D616E64 
 371      733A200A 
 371      30352C73 
 371      74617274 
 372 0026 30352C64 		.ascii	"05,depth\000"
 372      65707468 
 372      00
 373 002f 00       		.space	1
 374              	.LC2:
 375 0030 53544154 		.ascii	"STATE: WAIT_TO_LAUNCH\012\000"
 375      453A2057 
 375      4149545F 
 375      544F5F4C 
 375      41554E43 
 376 0047 00       		.space	1
 377              	.LC3:
 378 0048 5472616E 		.ascii	"Transmitting data\012\000"
 378      736D6974 
 378      74696E67 
 378      20646174 
 378      610A00
 379 005b 00       		.section	.rodata.str1.4,"aMS",%progbits,1
 380              		.align	2
 381              	.LC1:
 382 0000 72657365 		.ascii	"reset\000"
 382      7400
 383 0006 0000     		.text
 384              	.Letext0:
 385              		.file 2 "c:\\program files (x86)\\cypress\\psoc creator\\4.0\\psoc creator\\import\\gnu\\arm\\4.9.
 386              		.file 3 "c:\\program files (x86)\\cypress\\psoc creator\\4.0\\psoc creator\\import\\gnu\\arm\\4.9.
 387              		.file 4 "c:\\program files (x86)\\cypress\\psoc creator\\4.0\\psoc creator\\import\\gnu\\arm\\4.9.
 388              		.file 5 "functions.h"
 389              		.file 6 "Generated_Source\\PSoC5/cytypes.h"
 390              		.file 7 "Generated_Source\\PSoC5/core_cm3.h"
 391              		.file 8 "c:\\program files (x86)\\cypress\\psoc creator\\4.0\\psoc creator\\import\\gnu\\arm\\4.9.
 392              		.file 9 "Generated_Source\\PSoC5/UART.h"