ARM GAS  C:\Users\gding\AppData\Local\Temp\ccGg0tSa.s 			page 1


   1              		.syntax unified
   2              		.cpu cortex-m3
   3              		.fpu softvfp
   4              		.eabi_attribute 20, 1
   5              		.eabi_attribute 21, 1
   6              		.eabi_attribute 23, 3
   7              		.eabi_attribute 24, 1
   8              		.eabi_attribute 25, 1
   9              		.eabi_attribute 26, 1
  10              		.eabi_attribute 30, 1
  11              		.eabi_attribute 34, 1
  12              		.eabi_attribute 18, 4
  13              		.thumb
  14              		.file	"LiquidCrystal_I2C.c"
  15              		.text
  16              	.Ltext0:
  17              		.cfi_sections	.debug_frame
  18              		.section	.text.LiquidCrystal_I2C_init,"ax",%progbits
  19              		.align	2
  20              		.global	LiquidCrystal_I2C_init
  21              		.thumb
  22              		.thumb_func
  23              		.type	LiquidCrystal_I2C_init, %function
  24              	LiquidCrystal_I2C_init:
  25              	.LFB63:
  26              		.file 1 "LiquidCrystal_I2C.c"
   1:LiquidCrystal_I2C.c **** #include "LiquidCrystal_I2C.h"
   2:LiquidCrystal_I2C.c **** 
   3:LiquidCrystal_I2C.c **** 
   4:LiquidCrystal_I2C.c **** //#include "LiquidCrystal_I2C.h"/Portado para PSoC por Šarūnas Straigis
   5:LiquidCrystal_I2C.c **** //http://www.element14.com/community/people/sarunaszx/blog
   6:LiquidCrystal_I2C.c **** //Portado y modificado para PSoC 4 y PSoC 5LP por Brayan Bermudez y Carlos Diaz
   7:LiquidCrystal_I2C.c **** //http://digitalprojectsudistrital.blogspot.com.co/
   8:LiquidCrystal_I2C.c **** 
   9:LiquidCrystal_I2C.c **** 
  10:LiquidCrystal_I2C.c **** 
  11:LiquidCrystal_I2C.c **** // When the display powers up, it is configured as follows:
  12:LiquidCrystal_I2C.c **** //
  13:LiquidCrystal_I2C.c **** // 1. Display clear
  14:LiquidCrystal_I2C.c **** // 2. Function set: 
  15:LiquidCrystal_I2C.c **** //    DL = 1; 8-bit interface data 
  16:LiquidCrystal_I2C.c **** //    N = 0; 1-line display 
  17:LiquidCrystal_I2C.c **** //    F = 0; 5x8 dot character font 
  18:LiquidCrystal_I2C.c **** // 3. Display on/off control: 
  19:LiquidCrystal_I2C.c **** //    D = 0; Display off 
  20:LiquidCrystal_I2C.c **** //    C = 0; Cursor off 
  21:LiquidCrystal_I2C.c **** //    B = 0; Blinking off 
  22:LiquidCrystal_I2C.c **** // 4. Entry mode set: 
  23:LiquidCrystal_I2C.c **** //    I/D = 1; Increment by 1
  24:LiquidCrystal_I2C.c **** //    S = 0; No shift 
  25:LiquidCrystal_I2C.c **** //
  26:LiquidCrystal_I2C.c **** // Note, however, that resetting the Arduino doesn't reset the LCD, so we
  27:LiquidCrystal_I2C.c **** // can't assume that its in that state when a sketch starts (and the
  28:LiquidCrystal_I2C.c **** // LiquidCrystal constructor is called).
  29:LiquidCrystal_I2C.c **** 
  30:LiquidCrystal_I2C.c **** uint8_t _addr;
  31:LiquidCrystal_I2C.c **** uint8_t _displayfunction;
ARM GAS  C:\Users\gding\AppData\Local\Temp\ccGg0tSa.s 			page 2


  32:LiquidCrystal_I2C.c **** uint8_t _displaycontrol;
  33:LiquidCrystal_I2C.c **** uint8_t _displaymode;
  34:LiquidCrystal_I2C.c **** uint8_t _cols;
  35:LiquidCrystal_I2C.c **** uint8_t _rows;
  36:LiquidCrystal_I2C.c **** uint8_t _charsize;
  37:LiquidCrystal_I2C.c **** uint8_t _backlightval;
  38:LiquidCrystal_I2C.c **** 
  39:LiquidCrystal_I2C.c **** void LiquidCrystal_I2C_init(uint8_t lcd_addr, uint8_t lcd_cols, uint8_t lcd_rows, uint8_t charsize)
  40:LiquidCrystal_I2C.c **** {
  27              		.loc 1 40 0
  28              		.cfi_startproc
  29              		@ args = 0, pretend = 0, frame = 0
  30              		@ frame_needed = 0, uses_anonymous_args = 0
  31              		@ link register save eliminated.
  32              	.LVL0:
  33 0000 10B4     		push	{r4}
  34              		.cfi_def_cfa_offset 4
  35              		.cfi_offset 4, -4
  41:LiquidCrystal_I2C.c **** 	_addr = lcd_addr;
  36              		.loc 1 41 0
  37 0002 074C     		ldr	r4, .L3
  38 0004 2070     		strb	r0, [r4]
  42:LiquidCrystal_I2C.c **** 	_cols = lcd_cols;
  39              		.loc 1 42 0
  40 0006 0748     		ldr	r0, .L3+4
  41              	.LVL1:
  42 0008 0170     		strb	r1, [r0]
  43:LiquidCrystal_I2C.c **** 	_rows = lcd_rows;
  43              		.loc 1 43 0
  44 000a 0749     		ldr	r1, .L3+8
  45              	.LVL2:
  46 000c 0A70     		strb	r2, [r1]
  44:LiquidCrystal_I2C.c **** 	_charsize = charsize;
  47              		.loc 1 44 0
  48 000e 074A     		ldr	r2, .L3+12
  49              	.LVL3:
  50 0010 1370     		strb	r3, [r2]
  45:LiquidCrystal_I2C.c **** 	_backlightval = LCD_BACKLIGHT;
  51              		.loc 1 45 0
  52 0012 0822     		movs	r2, #8
  53 0014 064B     		ldr	r3, .L3+16
  54              	.LVL4:
  55 0016 1A70     		strb	r2, [r3]
  46:LiquidCrystal_I2C.c ****     
  47:LiquidCrystal_I2C.c ****     return;
  48:LiquidCrystal_I2C.c **** }
  56              		.loc 1 48 0
  57 0018 5DF8044B 		ldr	r4, [sp], #4
  58              		.cfi_restore 4
  59              		.cfi_def_cfa_offset 0
  60 001c 7047     		bx	lr
  61              	.L4:
  62 001e 00BF     		.align	2
  63              	.L3:
  64 0020 00000000 		.word	_addr
  65 0024 00000000 		.word	_cols
  66 0028 00000000 		.word	_rows
ARM GAS  C:\Users\gding\AppData\Local\Temp\ccGg0tSa.s 			page 3


  67 002c 00000000 		.word	_charsize
  68 0030 00000000 		.word	_backlightval
  69              		.cfi_endproc
  70              	.LFE63:
  71              		.size	LiquidCrystal_I2C_init, .-LiquidCrystal_I2C_init
  72              		.section	.text.I2C_M_write_byte,"ax",%progbits
  73              		.align	2
  74              		.global	I2C_M_write_byte
  75              		.thumb
  76              		.thumb_func
  77              		.type	I2C_M_write_byte, %function
  78              	I2C_M_write_byte:
  79              	.LFB92:
  49:LiquidCrystal_I2C.c **** 
  50:LiquidCrystal_I2C.c **** void begin(void){
  51:LiquidCrystal_I2C.c ****   
  52:LiquidCrystal_I2C.c **** 	_displayfunction = LCD_4BITMODE | LCD_1LINE | LCD_5x8DOTS;
  53:LiquidCrystal_I2C.c **** 
  54:LiquidCrystal_I2C.c **** 	if (_rows > 1) {
  55:LiquidCrystal_I2C.c **** 		_displayfunction |= LCD_2LINE;
  56:LiquidCrystal_I2C.c **** 	}
  57:LiquidCrystal_I2C.c **** 
  58:LiquidCrystal_I2C.c **** 	// for some 1 line displays you can select a 10 pixel high font
  59:LiquidCrystal_I2C.c **** 	if ((_charsize != 0) && (_rows == 1)) {
  60:LiquidCrystal_I2C.c **** 		_displayfunction |= LCD_5x10DOTS;
  61:LiquidCrystal_I2C.c **** 	}
  62:LiquidCrystal_I2C.c **** 
  63:LiquidCrystal_I2C.c **** 	// SEE PAGE 45/46 FOR INITIALIZATION SPECIFICATION!
  64:LiquidCrystal_I2C.c **** 	// according to datasheet, we need at least 40ms after power rises above 2.7V
  65:LiquidCrystal_I2C.c **** 	// before sending commands. Arduino can turn on way befer 4.5V so we'll wait 50
  66:LiquidCrystal_I2C.c **** 	CyDelay(50); 
  67:LiquidCrystal_I2C.c **** 
  68:LiquidCrystal_I2C.c **** 	// Now we pull both RS and R/W low to begin commands
  69:LiquidCrystal_I2C.c **** 	expanderWrite(_backlightval);	// reset expanderand turn backlight off (Bit 8 =1)
  70:LiquidCrystal_I2C.c **** 	CyDelay(1000);
  71:LiquidCrystal_I2C.c **** 
  72:LiquidCrystal_I2C.c **** 	//put the LCD into 4 bit mode
  73:LiquidCrystal_I2C.c **** 	// this is according to the hitachi HD44780 datasheet
  74:LiquidCrystal_I2C.c **** 	// figure 24, pg 46
  75:LiquidCrystal_I2C.c **** 
  76:LiquidCrystal_I2C.c **** 	// we start in 8bit mode, try to set 4 bit mode
  77:LiquidCrystal_I2C.c **** 	write4bits(0x03 << 4);
  78:LiquidCrystal_I2C.c **** 	CyDelayUs(4500); // wait min 4.1ms
  79:LiquidCrystal_I2C.c **** 
  80:LiquidCrystal_I2C.c **** 	// second try
  81:LiquidCrystal_I2C.c **** 	write4bits(0x03 << 4);
  82:LiquidCrystal_I2C.c **** 	CyDelayUs(4500); // wait min 4.1ms
  83:LiquidCrystal_I2C.c **** 
  84:LiquidCrystal_I2C.c **** 	// third go!
  85:LiquidCrystal_I2C.c **** 	write4bits(0x03 << 4); 
  86:LiquidCrystal_I2C.c **** 	CyDelayUs(150);
  87:LiquidCrystal_I2C.c **** 
  88:LiquidCrystal_I2C.c **** 	// finally, set to 4-bit interface
  89:LiquidCrystal_I2C.c **** 	write4bits(0x02 << 4); 
  90:LiquidCrystal_I2C.c **** 
  91:LiquidCrystal_I2C.c **** 	// set # lines, font size, etc.
  92:LiquidCrystal_I2C.c **** 	command(LCD_FUNCTIONSET | _displayfunction);  
ARM GAS  C:\Users\gding\AppData\Local\Temp\ccGg0tSa.s 			page 4


  93:LiquidCrystal_I2C.c **** 	
  94:LiquidCrystal_I2C.c **** 	// turn the display on with no cursor or blinking default
  95:LiquidCrystal_I2C.c **** 	_displaycontrol = LCD_DISPLAYON | LCD_CURSOROFF | LCD_BLINKOFF;
  96:LiquidCrystal_I2C.c **** 	display();
  97:LiquidCrystal_I2C.c **** 	
  98:LiquidCrystal_I2C.c **** 	// clear it off
  99:LiquidCrystal_I2C.c **** 	clear();
 100:LiquidCrystal_I2C.c **** 	
 101:LiquidCrystal_I2C.c **** 	// Initialize to default text direction (for roman languages)
 102:LiquidCrystal_I2C.c **** 	_displaymode = LCD_ENTRYLEFT | LCD_ENTRYSHIFTDECREMENT;
 103:LiquidCrystal_I2C.c **** 	
 104:LiquidCrystal_I2C.c **** 	// set the entry mode
 105:LiquidCrystal_I2C.c **** 	command(LCD_ENTRYMODESET | _displaymode);
 106:LiquidCrystal_I2C.c **** 	
 107:LiquidCrystal_I2C.c **** 	home();
 108:LiquidCrystal_I2C.c ****     
 109:LiquidCrystal_I2C.c ****     return;
 110:LiquidCrystal_I2C.c **** }
 111:LiquidCrystal_I2C.c **** 
 112:LiquidCrystal_I2C.c **** /********** high level commands, for the user! */
 113:LiquidCrystal_I2C.c **** void clear(void){
 114:LiquidCrystal_I2C.c ****     
 115:LiquidCrystal_I2C.c **** 	command(LCD_CLEARDISPLAY);// clear display, set cursor position to zero
 116:LiquidCrystal_I2C.c **** 	CyDelay(2);  // this command takes a long time!
 117:LiquidCrystal_I2C.c ****     
 118:LiquidCrystal_I2C.c ****     return;
 119:LiquidCrystal_I2C.c **** }
 120:LiquidCrystal_I2C.c **** 
 121:LiquidCrystal_I2C.c **** void home(void){
 122:LiquidCrystal_I2C.c **** 	
 123:LiquidCrystal_I2C.c ****     command(LCD_RETURNHOME);  // set cursor position to zero
 124:LiquidCrystal_I2C.c **** 	CyDelay(2);  // this command takes a long time!
 125:LiquidCrystal_I2C.c ****     
 126:LiquidCrystal_I2C.c ****     return;
 127:LiquidCrystal_I2C.c **** }
 128:LiquidCrystal_I2C.c **** 
 129:LiquidCrystal_I2C.c **** void setCursor(uint8_t col, uint8_t row){
 130:LiquidCrystal_I2C.c ****     
 131:LiquidCrystal_I2C.c **** 	int row_offsets[] = { 0x00, 0x40, 0x14, 0x54 };
 132:LiquidCrystal_I2C.c **** 	if (row > _rows) {
 133:LiquidCrystal_I2C.c **** 		row = _rows-1;    // we count rows starting w/0
 134:LiquidCrystal_I2C.c **** 	}
 135:LiquidCrystal_I2C.c **** 	command(LCD_SETDDRAMADDR | (col + row_offsets[row]));
 136:LiquidCrystal_I2C.c ****     
 137:LiquidCrystal_I2C.c ****     return;
 138:LiquidCrystal_I2C.c **** }
 139:LiquidCrystal_I2C.c **** 
 140:LiquidCrystal_I2C.c **** // Turn the display on/off (quickly)
 141:LiquidCrystal_I2C.c **** void noDisplay(void){
 142:LiquidCrystal_I2C.c **** 	
 143:LiquidCrystal_I2C.c ****     _displaycontrol &= ~LCD_DISPLAYON;
 144:LiquidCrystal_I2C.c **** 	command(LCD_DISPLAYCONTROL | _displaycontrol);
 145:LiquidCrystal_I2C.c ****     
 146:LiquidCrystal_I2C.c ****     return;
 147:LiquidCrystal_I2C.c **** }
 148:LiquidCrystal_I2C.c **** void display(void){
 149:LiquidCrystal_I2C.c ****     
ARM GAS  C:\Users\gding\AppData\Local\Temp\ccGg0tSa.s 			page 5


 150:LiquidCrystal_I2C.c **** 	_displaycontrol |= LCD_DISPLAYON;
 151:LiquidCrystal_I2C.c **** 	command(LCD_DISPLAYCONTROL | _displaycontrol);
 152:LiquidCrystal_I2C.c ****     
 153:LiquidCrystal_I2C.c ****     return;
 154:LiquidCrystal_I2C.c **** }
 155:LiquidCrystal_I2C.c **** 
 156:LiquidCrystal_I2C.c **** // Turns the underline cursor on/off
 157:LiquidCrystal_I2C.c **** void noCursor(void){
 158:LiquidCrystal_I2C.c **** 	
 159:LiquidCrystal_I2C.c ****     _displaycontrol &= ~LCD_CURSORON;
 160:LiquidCrystal_I2C.c **** 	command(LCD_DISPLAYCONTROL | _displaycontrol);
 161:LiquidCrystal_I2C.c ****     
 162:LiquidCrystal_I2C.c ****     return;
 163:LiquidCrystal_I2C.c **** }
 164:LiquidCrystal_I2C.c **** void cursor(void){
 165:LiquidCrystal_I2C.c **** 	
 166:LiquidCrystal_I2C.c ****     _displaycontrol |= LCD_CURSORON;
 167:LiquidCrystal_I2C.c **** 	command(LCD_DISPLAYCONTROL | _displaycontrol);
 168:LiquidCrystal_I2C.c ****     
 169:LiquidCrystal_I2C.c ****     return;
 170:LiquidCrystal_I2C.c **** }
 171:LiquidCrystal_I2C.c **** 
 172:LiquidCrystal_I2C.c **** // Turn on and off the blinking cursor
 173:LiquidCrystal_I2C.c **** void noBlink(void){
 174:LiquidCrystal_I2C.c **** 	
 175:LiquidCrystal_I2C.c ****     _displaycontrol &= ~LCD_BLINKON;
 176:LiquidCrystal_I2C.c **** 	command(LCD_DISPLAYCONTROL | _displaycontrol);
 177:LiquidCrystal_I2C.c ****     
 178:LiquidCrystal_I2C.c ****     return;
 179:LiquidCrystal_I2C.c **** }
 180:LiquidCrystal_I2C.c **** void blink(void){
 181:LiquidCrystal_I2C.c ****     
 182:LiquidCrystal_I2C.c **** 	_displaycontrol |= LCD_BLINKON;
 183:LiquidCrystal_I2C.c **** 	command(LCD_DISPLAYCONTROL | _displaycontrol);
 184:LiquidCrystal_I2C.c ****     
 185:LiquidCrystal_I2C.c ****     return;
 186:LiquidCrystal_I2C.c **** }
 187:LiquidCrystal_I2C.c **** 
 188:LiquidCrystal_I2C.c **** // These commands scroll the display without changing the RAM
 189:LiquidCrystal_I2C.c **** void scrollDisplayLeft(void){
 190:LiquidCrystal_I2C.c ****     
 191:LiquidCrystal_I2C.c **** 	command(LCD_CURSORSHIFT | LCD_DISPLAYMOVE | LCD_MOVELEFT);
 192:LiquidCrystal_I2C.c ****     
 193:LiquidCrystal_I2C.c ****     return;
 194:LiquidCrystal_I2C.c **** }
 195:LiquidCrystal_I2C.c **** void scrollDisplayRight(void){
 196:LiquidCrystal_I2C.c **** 	
 197:LiquidCrystal_I2C.c ****     command(LCD_CURSORSHIFT | LCD_DISPLAYMOVE | LCD_MOVERIGHT);
 198:LiquidCrystal_I2C.c ****     
 199:LiquidCrystal_I2C.c ****     return;
 200:LiquidCrystal_I2C.c **** }
 201:LiquidCrystal_I2C.c **** 
 202:LiquidCrystal_I2C.c **** // This is for text that flows Left to Right
 203:LiquidCrystal_I2C.c **** void leftToRight(void){
 204:LiquidCrystal_I2C.c ****     
 205:LiquidCrystal_I2C.c **** 	_displaymode |= LCD_ENTRYLEFT;
 206:LiquidCrystal_I2C.c **** 	command(LCD_ENTRYMODESET | _displaymode);
ARM GAS  C:\Users\gding\AppData\Local\Temp\ccGg0tSa.s 			page 6


 207:LiquidCrystal_I2C.c ****     
 208:LiquidCrystal_I2C.c ****     return;
 209:LiquidCrystal_I2C.c **** }
 210:LiquidCrystal_I2C.c **** 
 211:LiquidCrystal_I2C.c **** // This is for text that flows Right to Left
 212:LiquidCrystal_I2C.c **** void rightToLeft(void){
 213:LiquidCrystal_I2C.c ****     
 214:LiquidCrystal_I2C.c **** 	_displaymode &= ~LCD_ENTRYLEFT;
 215:LiquidCrystal_I2C.c **** 	command(LCD_ENTRYMODESET | _displaymode);
 216:LiquidCrystal_I2C.c ****     
 217:LiquidCrystal_I2C.c ****     return;
 218:LiquidCrystal_I2C.c **** }
 219:LiquidCrystal_I2C.c **** 
 220:LiquidCrystal_I2C.c **** // This will 'right justify' text from the cursor
 221:LiquidCrystal_I2C.c **** void autoscroll(void){
 222:LiquidCrystal_I2C.c **** 	
 223:LiquidCrystal_I2C.c ****     _displaymode |= LCD_ENTRYSHIFTINCREMENT;
 224:LiquidCrystal_I2C.c **** 	command(LCD_ENTRYMODESET | _displaymode);
 225:LiquidCrystal_I2C.c ****     
 226:LiquidCrystal_I2C.c ****     return;
 227:LiquidCrystal_I2C.c **** }
 228:LiquidCrystal_I2C.c **** 
 229:LiquidCrystal_I2C.c **** // This will 'left justify' text from the cursor
 230:LiquidCrystal_I2C.c **** void noAutoscroll(void){
 231:LiquidCrystal_I2C.c **** 	
 232:LiquidCrystal_I2C.c ****     _displaymode &= ~LCD_ENTRYSHIFTINCREMENT;
 233:LiquidCrystal_I2C.c **** 	command(LCD_ENTRYMODESET | _displaymode);
 234:LiquidCrystal_I2C.c ****     
 235:LiquidCrystal_I2C.c ****     return;
 236:LiquidCrystal_I2C.c **** }
 237:LiquidCrystal_I2C.c **** 
 238:LiquidCrystal_I2C.c **** // Allows us to fill the first 8 CGRAM locations
 239:LiquidCrystal_I2C.c **** // with custom characters
 240:LiquidCrystal_I2C.c **** void createChar(uint8_t location, uint8_t charmap[]){ uint32_t i = 0;
 241:LiquidCrystal_I2C.c **** 	
 242:LiquidCrystal_I2C.c ****     location &= 0x7; // we only have 8 locations 0-7
 243:LiquidCrystal_I2C.c **** 	command(LCD_SETCGRAMADDR | (location << 3));
 244:LiquidCrystal_I2C.c **** 	for (i=0; i<8; i++) {
 245:LiquidCrystal_I2C.c **** 		write(charmap[i]);
 246:LiquidCrystal_I2C.c **** 	}
 247:LiquidCrystal_I2C.c ****     
 248:LiquidCrystal_I2C.c ****     return;
 249:LiquidCrystal_I2C.c **** }
 250:LiquidCrystal_I2C.c **** 
 251:LiquidCrystal_I2C.c **** // Turn the (optional) backlight off/on
 252:LiquidCrystal_I2C.c **** void noBacklight(void) {
 253:LiquidCrystal_I2C.c **** 	
 254:LiquidCrystal_I2C.c ****     _backlightval=LCD_NOBACKLIGHT;
 255:LiquidCrystal_I2C.c **** 	expanderWrite(0);
 256:LiquidCrystal_I2C.c ****     
 257:LiquidCrystal_I2C.c ****     return;
 258:LiquidCrystal_I2C.c **** }
 259:LiquidCrystal_I2C.c **** 
 260:LiquidCrystal_I2C.c **** void backlight(void){
 261:LiquidCrystal_I2C.c ****     
 262:LiquidCrystal_I2C.c **** 	_backlightval=LCD_BACKLIGHT;
 263:LiquidCrystal_I2C.c **** 	expanderWrite(0);
ARM GAS  C:\Users\gding\AppData\Local\Temp\ccGg0tSa.s 			page 7


 264:LiquidCrystal_I2C.c ****     
 265:LiquidCrystal_I2C.c ****     return;
 266:LiquidCrystal_I2C.c **** }
 267:LiquidCrystal_I2C.c **** 
 268:LiquidCrystal_I2C.c **** /*********** mid level commands, for sending data/cmds */
 269:LiquidCrystal_I2C.c **** 
 270:LiquidCrystal_I2C.c **** void command(uint8_t value){
 271:LiquidCrystal_I2C.c **** 	
 272:LiquidCrystal_I2C.c ****     send(value, 0);
 273:LiquidCrystal_I2C.c ****     
 274:LiquidCrystal_I2C.c ****     return;
 275:LiquidCrystal_I2C.c **** }
 276:LiquidCrystal_I2C.c **** 
 277:LiquidCrystal_I2C.c ****  void write(uint8_t value){
 278:LiquidCrystal_I2C.c ****     
 279:LiquidCrystal_I2C.c **** 	send(value, Rs);
 280:LiquidCrystal_I2C.c ****     
 281:LiquidCrystal_I2C.c ****     return;
 282:LiquidCrystal_I2C.c **** }
 283:LiquidCrystal_I2C.c **** 
 284:LiquidCrystal_I2C.c **** 
 285:LiquidCrystal_I2C.c **** /************ low level data pushing commands **********/
 286:LiquidCrystal_I2C.c **** 
 287:LiquidCrystal_I2C.c **** // write either command or data
 288:LiquidCrystal_I2C.c **** void send(uint8_t value, uint8_t mode){
 289:LiquidCrystal_I2C.c ****     
 290:LiquidCrystal_I2C.c **** 	uint8_t highnib=value&0xf0;
 291:LiquidCrystal_I2C.c **** 	uint8_t lownib=(value<<4)&0xf0;
 292:LiquidCrystal_I2C.c **** 	write4bits((highnib)|mode);
 293:LiquidCrystal_I2C.c **** 	write4bits((lownib)|mode); 
 294:LiquidCrystal_I2C.c ****     
 295:LiquidCrystal_I2C.c ****     return;
 296:LiquidCrystal_I2C.c **** }
 297:LiquidCrystal_I2C.c **** 
 298:LiquidCrystal_I2C.c **** void write4bits(uint8_t value) {
 299:LiquidCrystal_I2C.c ****     
 300:LiquidCrystal_I2C.c **** 	expanderWrite(value);
 301:LiquidCrystal_I2C.c **** 	pulseEnable(value);
 302:LiquidCrystal_I2C.c ****     
 303:LiquidCrystal_I2C.c ****     return;
 304:LiquidCrystal_I2C.c **** }
 305:LiquidCrystal_I2C.c **** 
 306:LiquidCrystal_I2C.c **** void expanderWrite(uint8_t _data){     
 307:LiquidCrystal_I2C.c ****     
 308:LiquidCrystal_I2C.c **** 	I2C_M_write_byte(_addr,_data | _backlightval);	   
 309:LiquidCrystal_I2C.c ****     
 310:LiquidCrystal_I2C.c ****     return;
 311:LiquidCrystal_I2C.c **** }
 312:LiquidCrystal_I2C.c **** 
 313:LiquidCrystal_I2C.c **** void pulseEnable(uint8_t _data){
 314:LiquidCrystal_I2C.c ****     
 315:LiquidCrystal_I2C.c **** 	expanderWrite(_data | En);	// En high
 316:LiquidCrystal_I2C.c **** 	CyDelayUs(1);		// enable pulse must be >450ns
 317:LiquidCrystal_I2C.c **** 	expanderWrite(_data & ~En);	// En low
 318:LiquidCrystal_I2C.c **** 	CyDelayUs(50);		// commands need > 37us to settle
 319:LiquidCrystal_I2C.c ****     
 320:LiquidCrystal_I2C.c ****     return;
ARM GAS  C:\Users\gding\AppData\Local\Temp\ccGg0tSa.s 			page 8


 321:LiquidCrystal_I2C.c **** }
 322:LiquidCrystal_I2C.c **** 
 323:LiquidCrystal_I2C.c **** void load_custom_character(uint8_t char_num, uint8_t *rows){
 324:LiquidCrystal_I2C.c **** 	
 325:LiquidCrystal_I2C.c ****     createChar(char_num, rows);
 326:LiquidCrystal_I2C.c ****     
 327:LiquidCrystal_I2C.c ****     return;
 328:LiquidCrystal_I2C.c **** }
 329:LiquidCrystal_I2C.c **** 
 330:LiquidCrystal_I2C.c **** void setBacklight(uint8_t new_val){
 331:LiquidCrystal_I2C.c ****     
 332:LiquidCrystal_I2C.c **** 	if (new_val) {
 333:LiquidCrystal_I2C.c **** 		backlight();		// turn backlight on
 334:LiquidCrystal_I2C.c **** 	} else {
 335:LiquidCrystal_I2C.c **** 		noBacklight();		// turn backlight off
 336:LiquidCrystal_I2C.c **** 	}
 337:LiquidCrystal_I2C.c ****     
 338:LiquidCrystal_I2C.c ****     return;
 339:LiquidCrystal_I2C.c **** }
 340:LiquidCrystal_I2C.c **** 
 341:LiquidCrystal_I2C.c **** void LCD_print(char word[]){ uint32_t i = 0;
 342:LiquidCrystal_I2C.c ****     
 343:LiquidCrystal_I2C.c ****     uint8_t size = strlen(word);
 344:LiquidCrystal_I2C.c ****     
 345:LiquidCrystal_I2C.c ****     for (i = 0; i < size; i++){
 346:LiquidCrystal_I2C.c ****         write(word[i]);
 347:LiquidCrystal_I2C.c ****     }
 348:LiquidCrystal_I2C.c **** 
 349:LiquidCrystal_I2C.c ****     return;
 350:LiquidCrystal_I2C.c **** }
 351:LiquidCrystal_I2C.c **** 
 352:LiquidCrystal_I2C.c **** void I2C_M_write_byte(uint8_t addr,uint8_t data){ 
  80              		.loc 1 352 0
  81              		.cfi_startproc
  82              		@ args = 0, pretend = 0, frame = 0
  83              		@ frame_needed = 0, uses_anonymous_args = 0
  84              	.LVL5:
  85 0000 10B5     		push	{r4, lr}
  86              		.cfi_def_cfa_offset 8
  87              		.cfi_offset 4, -8
  88              		.cfi_offset 14, -4
  89 0002 0C46     		mov	r4, r1
 353:LiquidCrystal_I2C.c **** 
 354:LiquidCrystal_I2C.c **** #if CY_PSOC5
 355:LiquidCrystal_I2C.c ****     I2C_Master_MasterSendStart(addr, 0);
  90              		.loc 1 355 0
  91 0004 0021     		movs	r1, #0
  92              	.LVL6:
  93 0006 FFF7FEFF 		bl	I2C_Master_MasterSendStart
  94              	.LVL7:
 356:LiquidCrystal_I2C.c ****     I2C_Master_MasterWriteByte(data);
  95              		.loc 1 356 0
  96 000a 2046     		mov	r0, r4
  97 000c FFF7FEFF 		bl	I2C_Master_MasterWriteByte
  98              	.LVL8:
 357:LiquidCrystal_I2C.c ****     I2C_Master_MasterSendStop();
  99              		.loc 1 357 0
ARM GAS  C:\Users\gding\AppData\Local\Temp\ccGg0tSa.s 			page 9


 100 0010 FFF7FEFF 		bl	I2C_Master_MasterSendStop
 101              	.LVL9:
 102 0014 10BD     		pop	{r4, pc}
 103              		.cfi_endproc
 104              	.LFE92:
 105              		.size	I2C_M_write_byte, .-I2C_M_write_byte
 106 0016 00BF     		.section	.text.expanderWrite,"ax",%progbits
 107              		.align	2
 108              		.global	expanderWrite
 109              		.thumb
 110              		.thumb_func
 111              		.type	expanderWrite, %function
 112              	expanderWrite:
 113              	.LFB87:
 306:LiquidCrystal_I2C.c ****     
 114              		.loc 1 306 0
 115              		.cfi_startproc
 116              		@ args = 0, pretend = 0, frame = 0
 117              		@ frame_needed = 0, uses_anonymous_args = 0
 118              	.LVL10:
 119 0000 08B5     		push	{r3, lr}
 120              		.cfi_def_cfa_offset 8
 121              		.cfi_offset 3, -8
 122              		.cfi_offset 14, -4
 308:LiquidCrystal_I2C.c ****     
 123              		.loc 1 308 0
 124 0002 044B     		ldr	r3, .L9
 125 0004 1978     		ldrb	r1, [r3]	@ zero_extendqisi2
 126 0006 0143     		orrs	r1, r1, r0
 127 0008 034B     		ldr	r3, .L9+4
 128 000a 1878     		ldrb	r0, [r3]	@ zero_extendqisi2
 129              	.LVL11:
 130 000c FFF7FEFF 		bl	I2C_M_write_byte
 131              	.LVL12:
 132 0010 08BD     		pop	{r3, pc}
 133              	.L10:
 134 0012 00BF     		.align	2
 135              	.L9:
 136 0014 00000000 		.word	_backlightval
 137 0018 00000000 		.word	_addr
 138              		.cfi_endproc
 139              	.LFE87:
 140              		.size	expanderWrite, .-expanderWrite
 141              		.section	.text.noBacklight,"ax",%progbits
 142              		.align	2
 143              		.global	noBacklight
 144              		.thumb
 145              		.thumb_func
 146              		.type	noBacklight, %function
 147              	noBacklight:
 148              	.LFB81:
 252:LiquidCrystal_I2C.c **** 	
 149              		.loc 1 252 0
 150              		.cfi_startproc
 151              		@ args = 0, pretend = 0, frame = 0
 152              		@ frame_needed = 0, uses_anonymous_args = 0
 153 0000 08B5     		push	{r3, lr}
ARM GAS  C:\Users\gding\AppData\Local\Temp\ccGg0tSa.s 			page 10


 154              		.cfi_def_cfa_offset 8
 155              		.cfi_offset 3, -8
 156              		.cfi_offset 14, -4
 254:LiquidCrystal_I2C.c **** 	expanderWrite(0);
 157              		.loc 1 254 0
 158 0002 0020     		movs	r0, #0
 159 0004 024B     		ldr	r3, .L13
 160 0006 1870     		strb	r0, [r3]
 255:LiquidCrystal_I2C.c ****     
 161              		.loc 1 255 0
 162 0008 FFF7FEFF 		bl	expanderWrite
 163              	.LVL13:
 164 000c 08BD     		pop	{r3, pc}
 165              	.L14:
 166 000e 00BF     		.align	2
 167              	.L13:
 168 0010 00000000 		.word	_backlightval
 169              		.cfi_endproc
 170              	.LFE81:
 171              		.size	noBacklight, .-noBacklight
 172              		.section	.text.backlight,"ax",%progbits
 173              		.align	2
 174              		.global	backlight
 175              		.thumb
 176              		.thumb_func
 177              		.type	backlight, %function
 178              	backlight:
 179              	.LFB82:
 260:LiquidCrystal_I2C.c ****     
 180              		.loc 1 260 0
 181              		.cfi_startproc
 182              		@ args = 0, pretend = 0, frame = 0
 183              		@ frame_needed = 0, uses_anonymous_args = 0
 184 0000 08B5     		push	{r3, lr}
 185              		.cfi_def_cfa_offset 8
 186              		.cfi_offset 3, -8
 187              		.cfi_offset 14, -4
 262:LiquidCrystal_I2C.c **** 	expanderWrite(0);
 188              		.loc 1 262 0
 189 0002 0822     		movs	r2, #8
 190 0004 024B     		ldr	r3, .L17
 191 0006 1A70     		strb	r2, [r3]
 263:LiquidCrystal_I2C.c ****     
 192              		.loc 1 263 0
 193 0008 0020     		movs	r0, #0
 194 000a FFF7FEFF 		bl	expanderWrite
 195              	.LVL14:
 196 000e 08BD     		pop	{r3, pc}
 197              	.L18:
 198              		.align	2
 199              	.L17:
 200 0010 00000000 		.word	_backlightval
 201              		.cfi_endproc
 202              	.LFE82:
 203              		.size	backlight, .-backlight
 204              		.section	.text.setBacklight,"ax",%progbits
 205              		.align	2
ARM GAS  C:\Users\gding\AppData\Local\Temp\ccGg0tSa.s 			page 11


 206              		.global	setBacklight
 207              		.thumb
 208              		.thumb_func
 209              		.type	setBacklight, %function
 210              	setBacklight:
 211              	.LFB90:
 330:LiquidCrystal_I2C.c ****     
 212              		.loc 1 330 0
 213              		.cfi_startproc
 214              		@ args = 0, pretend = 0, frame = 0
 215              		@ frame_needed = 0, uses_anonymous_args = 0
 216              	.LVL15:
 217 0000 08B5     		push	{r3, lr}
 218              		.cfi_def_cfa_offset 8
 219              		.cfi_offset 3, -8
 220              		.cfi_offset 14, -4
 332:LiquidCrystal_I2C.c **** 		backlight();		// turn backlight on
 221              		.loc 1 332 0
 222 0002 10B1     		cbz	r0, .L20
 333:LiquidCrystal_I2C.c **** 	} else {
 223              		.loc 1 333 0
 224 0004 FFF7FEFF 		bl	backlight
 225              	.LVL16:
 226 0008 08BD     		pop	{r3, pc}
 227              	.LVL17:
 228              	.L20:
 335:LiquidCrystal_I2C.c **** 	}
 229              		.loc 1 335 0
 230 000a FFF7FEFF 		bl	noBacklight
 231              	.LVL18:
 232 000e 08BD     		pop	{r3, pc}
 233              		.cfi_endproc
 234              	.LFE90:
 235              		.size	setBacklight, .-setBacklight
 236              		.section	.text.pulseEnable,"ax",%progbits
 237              		.align	2
 238              		.global	pulseEnable
 239              		.thumb
 240              		.thumb_func
 241              		.type	pulseEnable, %function
 242              	pulseEnable:
 243              	.LFB88:
 313:LiquidCrystal_I2C.c ****     
 244              		.loc 1 313 0
 245              		.cfi_startproc
 246              		@ args = 0, pretend = 0, frame = 0
 247              		@ frame_needed = 0, uses_anonymous_args = 0
 248              	.LVL19:
 249 0000 10B5     		push	{r4, lr}
 250              		.cfi_def_cfa_offset 8
 251              		.cfi_offset 4, -8
 252              		.cfi_offset 14, -4
 253 0002 0446     		mov	r4, r0
 315:LiquidCrystal_I2C.c **** 	CyDelayUs(1);		// enable pulse must be >450ns
 254              		.loc 1 315 0
 255 0004 40F00400 		orr	r0, r0, #4
 256              	.LVL20:
ARM GAS  C:\Users\gding\AppData\Local\Temp\ccGg0tSa.s 			page 12


 257 0008 FFF7FEFF 		bl	expanderWrite
 258              	.LVL21:
 316:LiquidCrystal_I2C.c **** 	expanderWrite(_data & ~En);	// En low
 259              		.loc 1 316 0
 260 000c 0120     		movs	r0, #1
 261 000e FFF7FEFF 		bl	CyDelayUs
 262              	.LVL22:
 317:LiquidCrystal_I2C.c **** 	CyDelayUs(50);		// commands need > 37us to settle
 263              		.loc 1 317 0
 264 0012 04F0FB00 		and	r0, r4, #251
 265 0016 FFF7FEFF 		bl	expanderWrite
 266              	.LVL23:
 318:LiquidCrystal_I2C.c ****     
 267              		.loc 1 318 0
 268 001a 3220     		movs	r0, #50
 269 001c FFF7FEFF 		bl	CyDelayUs
 270              	.LVL24:
 271 0020 10BD     		pop	{r4, pc}
 272              		.cfi_endproc
 273              	.LFE88:
 274              		.size	pulseEnable, .-pulseEnable
 275 0022 00BF     		.section	.text.write4bits,"ax",%progbits
 276              		.align	2
 277              		.global	write4bits
 278              		.thumb
 279              		.thumb_func
 280              		.type	write4bits, %function
 281              	write4bits:
 282              	.LFB86:
 298:LiquidCrystal_I2C.c ****     
 283              		.loc 1 298 0
 284              		.cfi_startproc
 285              		@ args = 0, pretend = 0, frame = 0
 286              		@ frame_needed = 0, uses_anonymous_args = 0
 287              	.LVL25:
 288 0000 10B5     		push	{r4, lr}
 289              		.cfi_def_cfa_offset 8
 290              		.cfi_offset 4, -8
 291              		.cfi_offset 14, -4
 292 0002 0446     		mov	r4, r0
 300:LiquidCrystal_I2C.c **** 	pulseEnable(value);
 293              		.loc 1 300 0
 294 0004 FFF7FEFF 		bl	expanderWrite
 295              	.LVL26:
 301:LiquidCrystal_I2C.c ****     
 296              		.loc 1 301 0
 297 0008 2046     		mov	r0, r4
 298 000a FFF7FEFF 		bl	pulseEnable
 299              	.LVL27:
 300 000e 10BD     		pop	{r4, pc}
 301              		.cfi_endproc
 302              	.LFE86:
 303              		.size	write4bits, .-write4bits
 304              		.section	.text.send,"ax",%progbits
 305              		.align	2
 306              		.global	send
 307              		.thumb
ARM GAS  C:\Users\gding\AppData\Local\Temp\ccGg0tSa.s 			page 13


 308              		.thumb_func
 309              		.type	send, %function
 310              	send:
 311              	.LFB85:
 288:LiquidCrystal_I2C.c ****     
 312              		.loc 1 288 0
 313              		.cfi_startproc
 314              		@ args = 0, pretend = 0, frame = 0
 315              		@ frame_needed = 0, uses_anonymous_args = 0
 316              	.LVL28:
 317 0000 38B5     		push	{r3, r4, r5, lr}
 318              		.cfi_def_cfa_offset 16
 319              		.cfi_offset 3, -16
 320              		.cfi_offset 4, -12
 321              		.cfi_offset 5, -8
 322              		.cfi_offset 14, -4
 323 0002 0D46     		mov	r5, r1
 290:LiquidCrystal_I2C.c **** 	uint8_t lownib=(value<<4)&0xf0;
 324              		.loc 1 290 0
 325 0004 00F0F003 		and	r3, r0, #240
 326              	.LVL29:
 291:LiquidCrystal_I2C.c **** 	write4bits((highnib)|mode);
 327              		.loc 1 291 0
 328 0008 0401     		lsls	r4, r0, #4
 329 000a E4B2     		uxtb	r4, r4
 330              	.LVL30:
 292:LiquidCrystal_I2C.c **** 	write4bits((lownib)|mode); 
 331              		.loc 1 292 0
 332 000c 43EA0100 		orr	r0, r3, r1
 333              	.LVL31:
 334 0010 FFF7FEFF 		bl	write4bits
 335              	.LVL32:
 293:LiquidCrystal_I2C.c ****     
 336              		.loc 1 293 0
 337 0014 44EA0500 		orr	r0, r4, r5
 338 0018 FFF7FEFF 		bl	write4bits
 339              	.LVL33:
 340 001c 38BD     		pop	{r3, r4, r5, pc}
 341              		.cfi_endproc
 342              	.LFE85:
 343              		.size	send, .-send
 344 001e 00BF     		.section	.text.command,"ax",%progbits
 345              		.align	2
 346              		.global	command
 347              		.thumb
 348              		.thumb_func
 349              		.type	command, %function
 350              	command:
 351              	.LFB83:
 270:LiquidCrystal_I2C.c **** 	
 352              		.loc 1 270 0
 353              		.cfi_startproc
 354              		@ args = 0, pretend = 0, frame = 0
 355              		@ frame_needed = 0, uses_anonymous_args = 0
 356              	.LVL34:
 357 0000 08B5     		push	{r3, lr}
 358              		.cfi_def_cfa_offset 8
ARM GAS  C:\Users\gding\AppData\Local\Temp\ccGg0tSa.s 			page 14


 359              		.cfi_offset 3, -8
 360              		.cfi_offset 14, -4
 272:LiquidCrystal_I2C.c ****     
 361              		.loc 1 272 0
 362 0002 0021     		movs	r1, #0
 363 0004 FFF7FEFF 		bl	send
 364              	.LVL35:
 365 0008 08BD     		pop	{r3, pc}
 366              		.cfi_endproc
 367              	.LFE83:
 368              		.size	command, .-command
 369 000a 00BF     		.section	.text.clear,"ax",%progbits
 370              		.align	2
 371              		.global	clear
 372              		.thumb
 373              		.thumb_func
 374              		.type	clear, %function
 375              	clear:
 376              	.LFB65:
 113:LiquidCrystal_I2C.c ****     
 377              		.loc 1 113 0
 378              		.cfi_startproc
 379              		@ args = 0, pretend = 0, frame = 0
 380              		@ frame_needed = 0, uses_anonymous_args = 0
 381 0000 08B5     		push	{r3, lr}
 382              		.cfi_def_cfa_offset 8
 383              		.cfi_offset 3, -8
 384              		.cfi_offset 14, -4
 115:LiquidCrystal_I2C.c **** 	CyDelay(2);  // this command takes a long time!
 385              		.loc 1 115 0
 386 0002 0120     		movs	r0, #1
 387 0004 FFF7FEFF 		bl	command
 388              	.LVL36:
 116:LiquidCrystal_I2C.c ****     
 389              		.loc 1 116 0
 390 0008 0220     		movs	r0, #2
 391 000a FFF7FEFF 		bl	CyDelay
 392              	.LVL37:
 393 000e 08BD     		pop	{r3, pc}
 394              		.cfi_endproc
 395              	.LFE65:
 396              		.size	clear, .-clear
 397              		.section	.text.home,"ax",%progbits
 398              		.align	2
 399              		.global	home
 400              		.thumb
 401              		.thumb_func
 402              		.type	home, %function
 403              	home:
 404              	.LFB66:
 121:LiquidCrystal_I2C.c **** 	
 405              		.loc 1 121 0
 406              		.cfi_startproc
 407              		@ args = 0, pretend = 0, frame = 0
 408              		@ frame_needed = 0, uses_anonymous_args = 0
 409 0000 08B5     		push	{r3, lr}
 410              		.cfi_def_cfa_offset 8
ARM GAS  C:\Users\gding\AppData\Local\Temp\ccGg0tSa.s 			page 15


 411              		.cfi_offset 3, -8
 412              		.cfi_offset 14, -4
 123:LiquidCrystal_I2C.c **** 	CyDelay(2);  // this command takes a long time!
 413              		.loc 1 123 0
 414 0002 0220     		movs	r0, #2
 415 0004 FFF7FEFF 		bl	command
 416              	.LVL38:
 124:LiquidCrystal_I2C.c ****     
 417              		.loc 1 124 0
 418 0008 0220     		movs	r0, #2
 419 000a FFF7FEFF 		bl	CyDelay
 420              	.LVL39:
 421 000e 08BD     		pop	{r3, pc}
 422              		.cfi_endproc
 423              	.LFE66:
 424              		.size	home, .-home
 425              		.section	.text.setCursor,"ax",%progbits
 426              		.align	2
 427              		.global	setCursor
 428              		.thumb
 429              		.thumb_func
 430              		.type	setCursor, %function
 431              	setCursor:
 432              	.LFB67:
 129:LiquidCrystal_I2C.c ****     
 433              		.loc 1 129 0
 434              		.cfi_startproc
 435              		@ args = 0, pretend = 0, frame = 16
 436              		@ frame_needed = 0, uses_anonymous_args = 0
 437              	.LVL40:
 438 0000 30B5     		push	{r4, r5, lr}
 439              		.cfi_def_cfa_offset 12
 440              		.cfi_offset 4, -12
 441              		.cfi_offset 5, -8
 442              		.cfi_offset 14, -4
 443 0002 85B0     		sub	sp, sp, #20
 444              		.cfi_def_cfa_offset 32
 445 0004 0546     		mov	r5, r0
 446 0006 0C46     		mov	r4, r1
 131:LiquidCrystal_I2C.c **** 	if (row > _rows) {
 447              		.loc 1 131 0
 448 0008 0C4B     		ldr	r3, .L38
 449 000a 0FCB     		ldmia	r3, {r0, r1, r2, r3}
 450              	.LVL41:
 451 000c 0DF1100E 		add	lr, sp, #16
 452 0010 0EE90F00 		stmdb	lr, {r0, r1, r2, r3}
 132:LiquidCrystal_I2C.c **** 		row = _rows-1;    // we count rows starting w/0
 453              		.loc 1 132 0
 454 0014 0A4B     		ldr	r3, .L38+4
 455 0016 1B78     		ldrb	r3, [r3]	@ zero_extendqisi2
 456 0018 9C42     		cmp	r4, r3
 457 001a 01D9     		bls	.L36
 133:LiquidCrystal_I2C.c **** 	}
 458              		.loc 1 133 0
 459 001c 5C1E     		subs	r4, r3, #1
 460 001e E4B2     		uxtb	r4, r4
 461              	.LVL42:
ARM GAS  C:\Users\gding\AppData\Local\Temp\ccGg0tSa.s 			page 16


 462              	.L36:
 135:LiquidCrystal_I2C.c ****     
 463              		.loc 1 135 0
 464 0020 04AB     		add	r3, sp, #16
 465 0022 03EB8404 		add	r4, r3, r4, lsl #2
 466              	.LVL43:
 467 0026 54F8100C 		ldr	r0, [r4, #-16]
 468 002a 2844     		add	r0, r0, r5
 469 002c 60F07F00 		orn	r0, r0, #127
 470 0030 C0B2     		uxtb	r0, r0
 471 0032 FFF7FEFF 		bl	command
 472              	.LVL44:
 138:LiquidCrystal_I2C.c **** 
 473              		.loc 1 138 0
 474 0036 05B0     		add	sp, sp, #20
 475              		.cfi_def_cfa_offset 12
 476              		@ sp needed
 477 0038 30BD     		pop	{r4, r5, pc}
 478              	.L39:
 479 003a 00BF     		.align	2
 480              	.L38:
 481 003c 00000000 		.word	.LANCHOR0
 482 0040 00000000 		.word	_rows
 483              		.cfi_endproc
 484              	.LFE67:
 485              		.size	setCursor, .-setCursor
 486              		.section	.text.noDisplay,"ax",%progbits
 487              		.align	2
 488              		.global	noDisplay
 489              		.thumb
 490              		.thumb_func
 491              		.type	noDisplay, %function
 492              	noDisplay:
 493              	.LFB68:
 141:LiquidCrystal_I2C.c **** 	
 494              		.loc 1 141 0
 495              		.cfi_startproc
 496              		@ args = 0, pretend = 0, frame = 0
 497              		@ frame_needed = 0, uses_anonymous_args = 0
 498 0000 08B5     		push	{r3, lr}
 499              		.cfi_def_cfa_offset 8
 500              		.cfi_offset 3, -8
 501              		.cfi_offset 14, -4
 143:LiquidCrystal_I2C.c **** 	command(LCD_DISPLAYCONTROL | _displaycontrol);
 502              		.loc 1 143 0
 503 0002 054B     		ldr	r3, .L42
 504 0004 1878     		ldrb	r0, [r3]	@ zero_extendqisi2
 505 0006 00F0FB00 		and	r0, r0, #251
 506 000a 1870     		strb	r0, [r3]
 144:LiquidCrystal_I2C.c ****     
 507              		.loc 1 144 0
 508 000c 40F00800 		orr	r0, r0, #8
 509 0010 FFF7FEFF 		bl	command
 510              	.LVL45:
 511 0014 08BD     		pop	{r3, pc}
 512              	.L43:
 513 0016 00BF     		.align	2
ARM GAS  C:\Users\gding\AppData\Local\Temp\ccGg0tSa.s 			page 17


 514              	.L42:
 515 0018 00000000 		.word	_displaycontrol
 516              		.cfi_endproc
 517              	.LFE68:
 518              		.size	noDisplay, .-noDisplay
 519              		.section	.text.display,"ax",%progbits
 520              		.align	2
 521              		.global	display
 522              		.thumb
 523              		.thumb_func
 524              		.type	display, %function
 525              	display:
 526              	.LFB69:
 148:LiquidCrystal_I2C.c ****     
 527              		.loc 1 148 0
 528              		.cfi_startproc
 529              		@ args = 0, pretend = 0, frame = 0
 530              		@ frame_needed = 0, uses_anonymous_args = 0
 531 0000 08B5     		push	{r3, lr}
 532              		.cfi_def_cfa_offset 8
 533              		.cfi_offset 3, -8
 534              		.cfi_offset 14, -4
 150:LiquidCrystal_I2C.c **** 	command(LCD_DISPLAYCONTROL | _displaycontrol);
 535              		.loc 1 150 0
 536 0002 054B     		ldr	r3, .L46
 537 0004 1878     		ldrb	r0, [r3]	@ zero_extendqisi2
 538 0006 40F00400 		orr	r0, r0, #4
 539 000a 1870     		strb	r0, [r3]
 151:LiquidCrystal_I2C.c ****     
 540              		.loc 1 151 0
 541 000c 40F00800 		orr	r0, r0, #8
 542 0010 FFF7FEFF 		bl	command
 543              	.LVL46:
 544 0014 08BD     		pop	{r3, pc}
 545              	.L47:
 546 0016 00BF     		.align	2
 547              	.L46:
 548 0018 00000000 		.word	_displaycontrol
 549              		.cfi_endproc
 550              	.LFE69:
 551              		.size	display, .-display
 552              		.section	.text.noCursor,"ax",%progbits
 553              		.align	2
 554              		.global	noCursor
 555              		.thumb
 556              		.thumb_func
 557              		.type	noCursor, %function
 558              	noCursor:
 559              	.LFB70:
 157:LiquidCrystal_I2C.c **** 	
 560              		.loc 1 157 0
 561              		.cfi_startproc
 562              		@ args = 0, pretend = 0, frame = 0
 563              		@ frame_needed = 0, uses_anonymous_args = 0
 564 0000 08B5     		push	{r3, lr}
 565              		.cfi_def_cfa_offset 8
 566              		.cfi_offset 3, -8
ARM GAS  C:\Users\gding\AppData\Local\Temp\ccGg0tSa.s 			page 18


 567              		.cfi_offset 14, -4
 159:LiquidCrystal_I2C.c **** 	command(LCD_DISPLAYCONTROL | _displaycontrol);
 568              		.loc 1 159 0
 569 0002 054B     		ldr	r3, .L50
 570 0004 1878     		ldrb	r0, [r3]	@ zero_extendqisi2
 571 0006 00F0FD00 		and	r0, r0, #253
 572 000a 1870     		strb	r0, [r3]
 160:LiquidCrystal_I2C.c ****     
 573              		.loc 1 160 0
 574 000c 40F00800 		orr	r0, r0, #8
 575 0010 FFF7FEFF 		bl	command
 576              	.LVL47:
 577 0014 08BD     		pop	{r3, pc}
 578              	.L51:
 579 0016 00BF     		.align	2
 580              	.L50:
 581 0018 00000000 		.word	_displaycontrol
 582              		.cfi_endproc
 583              	.LFE70:
 584              		.size	noCursor, .-noCursor
 585              		.section	.text.cursor,"ax",%progbits
 586              		.align	2
 587              		.global	cursor
 588              		.thumb
 589              		.thumb_func
 590              		.type	cursor, %function
 591              	cursor:
 592              	.LFB71:
 164:LiquidCrystal_I2C.c **** 	
 593              		.loc 1 164 0
 594              		.cfi_startproc
 595              		@ args = 0, pretend = 0, frame = 0
 596              		@ frame_needed = 0, uses_anonymous_args = 0
 597 0000 08B5     		push	{r3, lr}
 598              		.cfi_def_cfa_offset 8
 599              		.cfi_offset 3, -8
 600              		.cfi_offset 14, -4
 166:LiquidCrystal_I2C.c **** 	command(LCD_DISPLAYCONTROL | _displaycontrol);
 601              		.loc 1 166 0
 602 0002 054B     		ldr	r3, .L54
 603 0004 1878     		ldrb	r0, [r3]	@ zero_extendqisi2
 604 0006 40F00200 		orr	r0, r0, #2
 605 000a 1870     		strb	r0, [r3]
 167:LiquidCrystal_I2C.c ****     
 606              		.loc 1 167 0
 607 000c 40F00800 		orr	r0, r0, #8
 608 0010 FFF7FEFF 		bl	command
 609              	.LVL48:
 610 0014 08BD     		pop	{r3, pc}
 611              	.L55:
 612 0016 00BF     		.align	2
 613              	.L54:
 614 0018 00000000 		.word	_displaycontrol
 615              		.cfi_endproc
 616              	.LFE71:
 617              		.size	cursor, .-cursor
 618              		.section	.text.noBlink,"ax",%progbits
ARM GAS  C:\Users\gding\AppData\Local\Temp\ccGg0tSa.s 			page 19


 619              		.align	2
 620              		.global	noBlink
 621              		.thumb
 622              		.thumb_func
 623              		.type	noBlink, %function
 624              	noBlink:
 625              	.LFB72:
 173:LiquidCrystal_I2C.c **** 	
 626              		.loc 1 173 0
 627              		.cfi_startproc
 628              		@ args = 0, pretend = 0, frame = 0
 629              		@ frame_needed = 0, uses_anonymous_args = 0
 630 0000 08B5     		push	{r3, lr}
 631              		.cfi_def_cfa_offset 8
 632              		.cfi_offset 3, -8
 633              		.cfi_offset 14, -4
 175:LiquidCrystal_I2C.c **** 	command(LCD_DISPLAYCONTROL | _displaycontrol);
 634              		.loc 1 175 0
 635 0002 054B     		ldr	r3, .L58
 636 0004 1878     		ldrb	r0, [r3]	@ zero_extendqisi2
 637 0006 00F0FE00 		and	r0, r0, #254
 638 000a 1870     		strb	r0, [r3]
 176:LiquidCrystal_I2C.c ****     
 639              		.loc 1 176 0
 640 000c 40F00800 		orr	r0, r0, #8
 641 0010 FFF7FEFF 		bl	command
 642              	.LVL49:
 643 0014 08BD     		pop	{r3, pc}
 644              	.L59:
 645 0016 00BF     		.align	2
 646              	.L58:
 647 0018 00000000 		.word	_displaycontrol
 648              		.cfi_endproc
 649              	.LFE72:
 650              		.size	noBlink, .-noBlink
 651              		.section	.text.blink,"ax",%progbits
 652              		.align	2
 653              		.global	blink
 654              		.thumb
 655              		.thumb_func
 656              		.type	blink, %function
 657              	blink:
 658              	.LFB73:
 180:LiquidCrystal_I2C.c ****     
 659              		.loc 1 180 0
 660              		.cfi_startproc
 661              		@ args = 0, pretend = 0, frame = 0
 662              		@ frame_needed = 0, uses_anonymous_args = 0
 663 0000 08B5     		push	{r3, lr}
 664              		.cfi_def_cfa_offset 8
 665              		.cfi_offset 3, -8
 666              		.cfi_offset 14, -4
 182:LiquidCrystal_I2C.c **** 	command(LCD_DISPLAYCONTROL | _displaycontrol);
 667              		.loc 1 182 0
 668 0002 054B     		ldr	r3, .L62
 669 0004 1878     		ldrb	r0, [r3]	@ zero_extendqisi2
 670 0006 40F00100 		orr	r0, r0, #1
ARM GAS  C:\Users\gding\AppData\Local\Temp\ccGg0tSa.s 			page 20


 671 000a 1870     		strb	r0, [r3]
 183:LiquidCrystal_I2C.c ****     
 672              		.loc 1 183 0
 673 000c 40F00800 		orr	r0, r0, #8
 674 0010 FFF7FEFF 		bl	command
 675              	.LVL50:
 676 0014 08BD     		pop	{r3, pc}
 677              	.L63:
 678 0016 00BF     		.align	2
 679              	.L62:
 680 0018 00000000 		.word	_displaycontrol
 681              		.cfi_endproc
 682              	.LFE73:
 683              		.size	blink, .-blink
 684              		.section	.text.scrollDisplayLeft,"ax",%progbits
 685              		.align	2
 686              		.global	scrollDisplayLeft
 687              		.thumb
 688              		.thumb_func
 689              		.type	scrollDisplayLeft, %function
 690              	scrollDisplayLeft:
 691              	.LFB74:
 189:LiquidCrystal_I2C.c ****     
 692              		.loc 1 189 0
 693              		.cfi_startproc
 694              		@ args = 0, pretend = 0, frame = 0
 695              		@ frame_needed = 0, uses_anonymous_args = 0
 696 0000 08B5     		push	{r3, lr}
 697              		.cfi_def_cfa_offset 8
 698              		.cfi_offset 3, -8
 699              		.cfi_offset 14, -4
 191:LiquidCrystal_I2C.c ****     
 700              		.loc 1 191 0
 701 0002 1820     		movs	r0, #24
 702 0004 FFF7FEFF 		bl	command
 703              	.LVL51:
 704 0008 08BD     		pop	{r3, pc}
 705              		.cfi_endproc
 706              	.LFE74:
 707              		.size	scrollDisplayLeft, .-scrollDisplayLeft
 708 000a 00BF     		.section	.text.scrollDisplayRight,"ax",%progbits
 709              		.align	2
 710              		.global	scrollDisplayRight
 711              		.thumb
 712              		.thumb_func
 713              		.type	scrollDisplayRight, %function
 714              	scrollDisplayRight:
 715              	.LFB75:
 195:LiquidCrystal_I2C.c **** 	
 716              		.loc 1 195 0
 717              		.cfi_startproc
 718              		@ args = 0, pretend = 0, frame = 0
 719              		@ frame_needed = 0, uses_anonymous_args = 0
 720 0000 08B5     		push	{r3, lr}
 721              		.cfi_def_cfa_offset 8
 722              		.cfi_offset 3, -8
 723              		.cfi_offset 14, -4
ARM GAS  C:\Users\gding\AppData\Local\Temp\ccGg0tSa.s 			page 21


 197:LiquidCrystal_I2C.c ****     
 724              		.loc 1 197 0
 725 0002 1C20     		movs	r0, #28
 726 0004 FFF7FEFF 		bl	command
 727              	.LVL52:
 728 0008 08BD     		pop	{r3, pc}
 729              		.cfi_endproc
 730              	.LFE75:
 731              		.size	scrollDisplayRight, .-scrollDisplayRight
 732 000a 00BF     		.section	.text.leftToRight,"ax",%progbits
 733              		.align	2
 734              		.global	leftToRight
 735              		.thumb
 736              		.thumb_func
 737              		.type	leftToRight, %function
 738              	leftToRight:
 739              	.LFB76:
 203:LiquidCrystal_I2C.c ****     
 740              		.loc 1 203 0
 741              		.cfi_startproc
 742              		@ args = 0, pretend = 0, frame = 0
 743              		@ frame_needed = 0, uses_anonymous_args = 0
 744 0000 08B5     		push	{r3, lr}
 745              		.cfi_def_cfa_offset 8
 746              		.cfi_offset 3, -8
 747              		.cfi_offset 14, -4
 205:LiquidCrystal_I2C.c **** 	command(LCD_ENTRYMODESET | _displaymode);
 748              		.loc 1 205 0
 749 0002 054B     		ldr	r3, .L70
 750 0004 1878     		ldrb	r0, [r3]	@ zero_extendqisi2
 751 0006 40F00200 		orr	r0, r0, #2
 752 000a 1870     		strb	r0, [r3]
 206:LiquidCrystal_I2C.c ****     
 753              		.loc 1 206 0
 754 000c 40F00400 		orr	r0, r0, #4
 755 0010 FFF7FEFF 		bl	command
 756              	.LVL53:
 757 0014 08BD     		pop	{r3, pc}
 758              	.L71:
 759 0016 00BF     		.align	2
 760              	.L70:
 761 0018 00000000 		.word	_displaymode
 762              		.cfi_endproc
 763              	.LFE76:
 764              		.size	leftToRight, .-leftToRight
 765              		.section	.text.rightToLeft,"ax",%progbits
 766              		.align	2
 767              		.global	rightToLeft
 768              		.thumb
 769              		.thumb_func
 770              		.type	rightToLeft, %function
 771              	rightToLeft:
 772              	.LFB77:
 212:LiquidCrystal_I2C.c ****     
 773              		.loc 1 212 0
 774              		.cfi_startproc
 775              		@ args = 0, pretend = 0, frame = 0
ARM GAS  C:\Users\gding\AppData\Local\Temp\ccGg0tSa.s 			page 22


 776              		@ frame_needed = 0, uses_anonymous_args = 0
 777 0000 08B5     		push	{r3, lr}
 778              		.cfi_def_cfa_offset 8
 779              		.cfi_offset 3, -8
 780              		.cfi_offset 14, -4
 214:LiquidCrystal_I2C.c **** 	command(LCD_ENTRYMODESET | _displaymode);
 781              		.loc 1 214 0
 782 0002 054B     		ldr	r3, .L74
 783 0004 1878     		ldrb	r0, [r3]	@ zero_extendqisi2
 784 0006 00F0FD00 		and	r0, r0, #253
 785 000a 1870     		strb	r0, [r3]
 215:LiquidCrystal_I2C.c ****     
 786              		.loc 1 215 0
 787 000c 40F00400 		orr	r0, r0, #4
 788 0010 FFF7FEFF 		bl	command
 789              	.LVL54:
 790 0014 08BD     		pop	{r3, pc}
 791              	.L75:
 792 0016 00BF     		.align	2
 793              	.L74:
 794 0018 00000000 		.word	_displaymode
 795              		.cfi_endproc
 796              	.LFE77:
 797              		.size	rightToLeft, .-rightToLeft
 798              		.section	.text.autoscroll,"ax",%progbits
 799              		.align	2
 800              		.global	autoscroll
 801              		.thumb
 802              		.thumb_func
 803              		.type	autoscroll, %function
 804              	autoscroll:
 805              	.LFB78:
 221:LiquidCrystal_I2C.c **** 	
 806              		.loc 1 221 0
 807              		.cfi_startproc
 808              		@ args = 0, pretend = 0, frame = 0
 809              		@ frame_needed = 0, uses_anonymous_args = 0
 810 0000 08B5     		push	{r3, lr}
 811              		.cfi_def_cfa_offset 8
 812              		.cfi_offset 3, -8
 813              		.cfi_offset 14, -4
 223:LiquidCrystal_I2C.c **** 	command(LCD_ENTRYMODESET | _displaymode);
 814              		.loc 1 223 0
 815 0002 054B     		ldr	r3, .L78
 816 0004 1878     		ldrb	r0, [r3]	@ zero_extendqisi2
 817 0006 40F00100 		orr	r0, r0, #1
 818 000a 1870     		strb	r0, [r3]
 224:LiquidCrystal_I2C.c ****     
 819              		.loc 1 224 0
 820 000c 40F00400 		orr	r0, r0, #4
 821 0010 FFF7FEFF 		bl	command
 822              	.LVL55:
 823 0014 08BD     		pop	{r3, pc}
 824              	.L79:
 825 0016 00BF     		.align	2
 826              	.L78:
 827 0018 00000000 		.word	_displaymode
ARM GAS  C:\Users\gding\AppData\Local\Temp\ccGg0tSa.s 			page 23


 828              		.cfi_endproc
 829              	.LFE78:
 830              		.size	autoscroll, .-autoscroll
 831              		.section	.text.noAutoscroll,"ax",%progbits
 832              		.align	2
 833              		.global	noAutoscroll
 834              		.thumb
 835              		.thumb_func
 836              		.type	noAutoscroll, %function
 837              	noAutoscroll:
 838              	.LFB79:
 230:LiquidCrystal_I2C.c **** 	
 839              		.loc 1 230 0
 840              		.cfi_startproc
 841              		@ args = 0, pretend = 0, frame = 0
 842              		@ frame_needed = 0, uses_anonymous_args = 0
 843 0000 08B5     		push	{r3, lr}
 844              		.cfi_def_cfa_offset 8
 845              		.cfi_offset 3, -8
 846              		.cfi_offset 14, -4
 232:LiquidCrystal_I2C.c **** 	command(LCD_ENTRYMODESET | _displaymode);
 847              		.loc 1 232 0
 848 0002 054B     		ldr	r3, .L82
 849 0004 1878     		ldrb	r0, [r3]	@ zero_extendqisi2
 850 0006 00F0FE00 		and	r0, r0, #254
 851 000a 1870     		strb	r0, [r3]
 233:LiquidCrystal_I2C.c ****     
 852              		.loc 1 233 0
 853 000c 40F00400 		orr	r0, r0, #4
 854 0010 FFF7FEFF 		bl	command
 855              	.LVL56:
 856 0014 08BD     		pop	{r3, pc}
 857              	.L83:
 858 0016 00BF     		.align	2
 859              	.L82:
 860 0018 00000000 		.word	_displaymode
 861              		.cfi_endproc
 862              	.LFE79:
 863              		.size	noAutoscroll, .-noAutoscroll
 864              		.section	.text.write,"ax",%progbits
 865              		.align	2
 866              		.global	write
 867              		.thumb
 868              		.thumb_func
 869              		.type	write, %function
 870              	write:
 871              	.LFB84:
 277:LiquidCrystal_I2C.c ****     
 872              		.loc 1 277 0
 873              		.cfi_startproc
 874              		@ args = 0, pretend = 0, frame = 0
 875              		@ frame_needed = 0, uses_anonymous_args = 0
 876              	.LVL57:
 877 0000 08B5     		push	{r3, lr}
 878              		.cfi_def_cfa_offset 8
 879              		.cfi_offset 3, -8
 880              		.cfi_offset 14, -4
ARM GAS  C:\Users\gding\AppData\Local\Temp\ccGg0tSa.s 			page 24


 279:LiquidCrystal_I2C.c ****     
 881              		.loc 1 279 0
 882 0002 0121     		movs	r1, #1
 883 0004 FFF7FEFF 		bl	send
 884              	.LVL58:
 885 0008 08BD     		pop	{r3, pc}
 886              		.cfi_endproc
 887              	.LFE84:
 888              		.size	write, .-write
 889 000a 00BF     		.section	.text.createChar,"ax",%progbits
 890              		.align	2
 891              		.global	createChar
 892              		.thumb
 893              		.thumb_func
 894              		.type	createChar, %function
 895              	createChar:
 896              	.LFB80:
 240:LiquidCrystal_I2C.c **** 	
 897              		.loc 1 240 0
 898              		.cfi_startproc
 899              		@ args = 0, pretend = 0, frame = 0
 900              		@ frame_needed = 0, uses_anonymous_args = 0
 901              	.LVL59:
 902 0000 38B5     		push	{r3, r4, r5, lr}
 903              		.cfi_def_cfa_offset 16
 904              		.cfi_offset 3, -16
 905              		.cfi_offset 4, -12
 906              		.cfi_offset 5, -8
 907              		.cfi_offset 14, -4
 908 0002 0D46     		mov	r5, r1
 909              	.LVL60:
 242:LiquidCrystal_I2C.c **** 	command(LCD_SETCGRAMADDR | (location << 3));
 910              		.loc 1 242 0
 911 0004 00F00700 		and	r0, r0, #7
 912              	.LVL61:
 243:LiquidCrystal_I2C.c **** 	for (i=0; i<8; i++) {
 913              		.loc 1 243 0
 914 0008 C000     		lsls	r0, r0, #3
 915              	.LVL62:
 916 000a 40F04000 		orr	r0, r0, #64
 917 000e FFF7FEFF 		bl	command
 918              	.LVL63:
 244:LiquidCrystal_I2C.c **** 		write(charmap[i]);
 919              		.loc 1 244 0
 920 0012 0024     		movs	r4, #0
 921 0014 03E0     		b	.L87
 922              	.LVL64:
 923              	.L88:
 245:LiquidCrystal_I2C.c **** 	}
 924              		.loc 1 245 0 discriminator 3
 925 0016 285D     		ldrb	r0, [r5, r4]	@ zero_extendqisi2
 926 0018 FFF7FEFF 		bl	write
 927              	.LVL65:
 244:LiquidCrystal_I2C.c **** 		write(charmap[i]);
 928              		.loc 1 244 0 discriminator 3
 929 001c 0134     		adds	r4, r4, #1
 930              	.LVL66:
ARM GAS  C:\Users\gding\AppData\Local\Temp\ccGg0tSa.s 			page 25


 931              	.L87:
 244:LiquidCrystal_I2C.c **** 		write(charmap[i]);
 932              		.loc 1 244 0 is_stmt 0 discriminator 1
 933 001e 072C     		cmp	r4, #7
 934 0020 F9D9     		bls	.L88
 249:LiquidCrystal_I2C.c **** 
 935              		.loc 1 249 0 is_stmt 1
 936 0022 38BD     		pop	{r3, r4, r5, pc}
 937              		.cfi_endproc
 938              	.LFE80:
 939              		.size	createChar, .-createChar
 940              		.section	.text.load_custom_character,"ax",%progbits
 941              		.align	2
 942              		.global	load_custom_character
 943              		.thumb
 944              		.thumb_func
 945              		.type	load_custom_character, %function
 946              	load_custom_character:
 947              	.LFB89:
 323:LiquidCrystal_I2C.c **** 	
 948              		.loc 1 323 0
 949              		.cfi_startproc
 950              		@ args = 0, pretend = 0, frame = 0
 951              		@ frame_needed = 0, uses_anonymous_args = 0
 952              	.LVL67:
 953 0000 08B5     		push	{r3, lr}
 954              		.cfi_def_cfa_offset 8
 955              		.cfi_offset 3, -8
 956              		.cfi_offset 14, -4
 325:LiquidCrystal_I2C.c ****     
 957              		.loc 1 325 0
 958 0002 FFF7FEFF 		bl	createChar
 959              	.LVL68:
 960 0006 08BD     		pop	{r3, pc}
 961              		.cfi_endproc
 962              	.LFE89:
 963              		.size	load_custom_character, .-load_custom_character
 964              		.section	.text.LCD_print,"ax",%progbits
 965              		.align	2
 966              		.global	LCD_print
 967              		.thumb
 968              		.thumb_func
 969              		.type	LCD_print, %function
 970              	LCD_print:
 971              	.LFB91:
 341:LiquidCrystal_I2C.c ****     
 972              		.loc 1 341 0
 973              		.cfi_startproc
 974              		@ args = 0, pretend = 0, frame = 0
 975              		@ frame_needed = 0, uses_anonymous_args = 0
 976              	.LVL69:
 977 0000 70B5     		push	{r4, r5, r6, lr}
 978              		.cfi_def_cfa_offset 16
 979              		.cfi_offset 4, -16
 980              		.cfi_offset 5, -12
 981              		.cfi_offset 6, -8
 982              		.cfi_offset 14, -4
ARM GAS  C:\Users\gding\AppData\Local\Temp\ccGg0tSa.s 			page 26


 983 0002 0646     		mov	r6, r0
 984              	.LVL70:
 343:LiquidCrystal_I2C.c ****     
 985              		.loc 1 343 0
 986 0004 FFF7FEFF 		bl	strlen
 987              	.LVL71:
 988 0008 0546     		mov	r5, r0
 989              	.LVL72:
 345:LiquidCrystal_I2C.c ****         write(word[i]);
 990              		.loc 1 345 0
 991 000a 0024     		movs	r4, #0
 992 000c 03E0     		b	.L93
 993              	.LVL73:
 994              	.L94:
 346:LiquidCrystal_I2C.c ****     }
 995              		.loc 1 346 0 discriminator 3
 996 000e 305D     		ldrb	r0, [r6, r4]	@ zero_extendqisi2
 997 0010 FFF7FEFF 		bl	write
 998              	.LVL74:
 345:LiquidCrystal_I2C.c ****         write(word[i]);
 999              		.loc 1 345 0 discriminator 3
 1000 0014 0134     		adds	r4, r4, #1
 1001              	.LVL75:
 1002              	.L93:
 345:LiquidCrystal_I2C.c ****         write(word[i]);
 1003              		.loc 1 345 0 is_stmt 0 discriminator 1
 1004 0016 EBB2     		uxtb	r3, r5
 1005 0018 A342     		cmp	r3, r4
 1006 001a F8D8     		bhi	.L94
 350:LiquidCrystal_I2C.c **** 
 1007              		.loc 1 350 0 is_stmt 1
 1008 001c 70BD     		pop	{r4, r5, r6, pc}
 1009              		.cfi_endproc
 1010              	.LFE91:
 1011              		.size	LCD_print, .-LCD_print
 1012 001e 00BF     		.section	.text.begin,"ax",%progbits
 1013              		.align	2
 1014              		.global	begin
 1015              		.thumb
 1016              		.thumb_func
 1017              		.type	begin, %function
 1018              	begin:
 1019              	.LFB64:
  50:LiquidCrystal_I2C.c ****   
 1020              		.loc 1 50 0
 1021              		.cfi_startproc
 1022              		@ args = 0, pretend = 0, frame = 0
 1023              		@ frame_needed = 0, uses_anonymous_args = 0
 1024 0000 08B5     		push	{r3, lr}
 1025              		.cfi_def_cfa_offset 8
 1026              		.cfi_offset 3, -8
 1027              		.cfi_offset 14, -4
  52:LiquidCrystal_I2C.c **** 
 1028              		.loc 1 52 0
 1029 0002 0022     		movs	r2, #0
 1030 0004 254B     		ldr	r3, .L100
 1031 0006 1A70     		strb	r2, [r3]
ARM GAS  C:\Users\gding\AppData\Local\Temp\ccGg0tSa.s 			page 27


  54:LiquidCrystal_I2C.c **** 		_displayfunction |= LCD_2LINE;
 1032              		.loc 1 54 0
 1033 0008 254B     		ldr	r3, .L100+4
 1034 000a 1B78     		ldrb	r3, [r3]	@ zero_extendqisi2
 1035 000c 012B     		cmp	r3, #1
 1036 000e 02D9     		bls	.L97
  55:LiquidCrystal_I2C.c **** 	}
 1037              		.loc 1 55 0
 1038 0010 0821     		movs	r1, #8
 1039 0012 224A     		ldr	r2, .L100
 1040 0014 1170     		strb	r1, [r2]
 1041              	.L97:
  59:LiquidCrystal_I2C.c **** 		_displayfunction |= LCD_5x10DOTS;
 1042              		.loc 1 59 0
 1043 0016 234A     		ldr	r2, .L100+8
 1044 0018 1278     		ldrb	r2, [r2]	@ zero_extendqisi2
 1045 001a 32B1     		cbz	r2, .L98
  59:LiquidCrystal_I2C.c **** 		_displayfunction |= LCD_5x10DOTS;
 1046              		.loc 1 59 0 is_stmt 0 discriminator 1
 1047 001c 012B     		cmp	r3, #1
 1048 001e 04D1     		bne	.L98
  60:LiquidCrystal_I2C.c **** 	}
 1049              		.loc 1 60 0 is_stmt 1
 1050 0020 1E4A     		ldr	r2, .L100
 1051 0022 1378     		ldrb	r3, [r2]	@ zero_extendqisi2
 1052 0024 43F00403 		orr	r3, r3, #4
 1053 0028 1370     		strb	r3, [r2]
 1054              	.L98:
  66:LiquidCrystal_I2C.c **** 
 1055              		.loc 1 66 0
 1056 002a 3220     		movs	r0, #50
 1057 002c FFF7FEFF 		bl	CyDelay
 1058              	.LVL76:
  69:LiquidCrystal_I2C.c **** 	CyDelay(1000);
 1059              		.loc 1 69 0
 1060 0030 1D4B     		ldr	r3, .L100+12
 1061 0032 1878     		ldrb	r0, [r3]	@ zero_extendqisi2
 1062 0034 FFF7FEFF 		bl	expanderWrite
 1063              	.LVL77:
  70:LiquidCrystal_I2C.c **** 
 1064              		.loc 1 70 0
 1065 0038 4FF47A70 		mov	r0, #1000
 1066 003c FFF7FEFF 		bl	CyDelay
 1067              	.LVL78:
  77:LiquidCrystal_I2C.c **** 	CyDelayUs(4500); // wait min 4.1ms
 1068              		.loc 1 77 0
 1069 0040 3020     		movs	r0, #48
 1070 0042 FFF7FEFF 		bl	write4bits
 1071              	.LVL79:
  78:LiquidCrystal_I2C.c **** 
 1072              		.loc 1 78 0
 1073 0046 41F29410 		movw	r0, #4500
 1074 004a FFF7FEFF 		bl	CyDelayUs
 1075              	.LVL80:
  81:LiquidCrystal_I2C.c **** 	CyDelayUs(4500); // wait min 4.1ms
 1076              		.loc 1 81 0
 1077 004e 3020     		movs	r0, #48
ARM GAS  C:\Users\gding\AppData\Local\Temp\ccGg0tSa.s 			page 28


 1078 0050 FFF7FEFF 		bl	write4bits
 1079              	.LVL81:
  82:LiquidCrystal_I2C.c **** 
 1080              		.loc 1 82 0
 1081 0054 41F29410 		movw	r0, #4500
 1082 0058 FFF7FEFF 		bl	CyDelayUs
 1083              	.LVL82:
  85:LiquidCrystal_I2C.c **** 	CyDelayUs(150);
 1084              		.loc 1 85 0
 1085 005c 3020     		movs	r0, #48
 1086 005e FFF7FEFF 		bl	write4bits
 1087              	.LVL83:
  86:LiquidCrystal_I2C.c **** 
 1088              		.loc 1 86 0
 1089 0062 9620     		movs	r0, #150
 1090 0064 FFF7FEFF 		bl	CyDelayUs
 1091              	.LVL84:
  89:LiquidCrystal_I2C.c **** 
 1092              		.loc 1 89 0
 1093 0068 2020     		movs	r0, #32
 1094 006a FFF7FEFF 		bl	write4bits
 1095              	.LVL85:
  92:LiquidCrystal_I2C.c **** 	
 1096              		.loc 1 92 0
 1097 006e 0B4B     		ldr	r3, .L100
 1098 0070 1878     		ldrb	r0, [r3]	@ zero_extendqisi2
 1099 0072 40F02000 		orr	r0, r0, #32
 1100 0076 FFF7FEFF 		bl	command
 1101              	.LVL86:
  95:LiquidCrystal_I2C.c **** 	display();
 1102              		.loc 1 95 0
 1103 007a 0422     		movs	r2, #4
 1104 007c 0B4B     		ldr	r3, .L100+16
 1105 007e 1A70     		strb	r2, [r3]
  96:LiquidCrystal_I2C.c **** 	
 1106              		.loc 1 96 0
 1107 0080 FFF7FEFF 		bl	display
 1108              	.LVL87:
  99:LiquidCrystal_I2C.c **** 	
 1109              		.loc 1 99 0
 1110 0084 FFF7FEFF 		bl	clear
 1111              	.LVL88:
 102:LiquidCrystal_I2C.c **** 	
 1112              		.loc 1 102 0
 1113 0088 0222     		movs	r2, #2
 1114 008a 094B     		ldr	r3, .L100+20
 1115 008c 1A70     		strb	r2, [r3]
 105:LiquidCrystal_I2C.c **** 	
 1116              		.loc 1 105 0
 1117 008e 0620     		movs	r0, #6
 1118 0090 FFF7FEFF 		bl	command
 1119              	.LVL89:
 107:LiquidCrystal_I2C.c ****     
 1120              		.loc 1 107 0
 1121 0094 FFF7FEFF 		bl	home
 1122              	.LVL90:
 1123 0098 08BD     		pop	{r3, pc}
ARM GAS  C:\Users\gding\AppData\Local\Temp\ccGg0tSa.s 			page 29


 1124              	.L101:
 1125 009a 00BF     		.align	2
 1126              	.L100:
 1127 009c 00000000 		.word	_displayfunction
 1128 00a0 00000000 		.word	_rows
 1129 00a4 00000000 		.word	_charsize
 1130 00a8 00000000 		.word	_backlightval
 1131 00ac 00000000 		.word	_displaycontrol
 1132 00b0 00000000 		.word	_displaymode
 1133              		.cfi_endproc
 1134              	.LFE64:
 1135              		.size	begin, .-begin
 1136              		.comm	_backlightval,1,1
 1137              		.comm	_charsize,1,1
 1138              		.comm	_rows,1,1
 1139              		.comm	_cols,1,1
 1140              		.comm	_displaymode,1,1
 1141              		.comm	_displaycontrol,1,1
 1142              		.comm	_displayfunction,1,1
 1143              		.comm	_addr,1,1
 1144              		.section	.rodata
 1145              		.align	2
 1146              		.set	.LANCHOR0,. + 0
 1147              	.LC0:
 1148 0000 00000000 		.word	0
 1149 0004 40000000 		.word	64
 1150 0008 14000000 		.word	20
 1151 000c 54000000 		.word	84
 1152              		.text
 1153              	.Letext0:
 1154              		.file 2 "c:\\program files (x86)\\cypress\\psoc creator\\4.0\\psoc creator\\import\\gnu\\arm\\4.9.
 1155              		.file 3 "c:\\program files (x86)\\cypress\\psoc creator\\4.0\\psoc creator\\import\\gnu\\arm\\4.9.
 1156              		.file 4 "Generated_Source\\PSoC5/cytypes.h"
 1157              		.file 5 "c:\\program files (x86)\\cypress\\psoc creator\\4.0\\psoc creator\\import\\gnu\\arm\\4.9.
 1158              		.file 6 "Generated_Source\\PSoC5/core_cm3.h"
 1159              		.file 7 "Generated_Source\\PSoC5/I2C_Master.h"
 1160              		.file 8 "Generated_Source\\PSoC5/CyLib.h"
 1161              		.file 9 "c:\\program files (x86)\\cypress\\psoc creator\\4.0\\psoc creator\\import\\gnu\\arm\\4.9.