ARM GAS  C:\Users\gding\AppData\Local\Temp\ccA9lwN1.s 			page 1


   1              		.syntax unified
   2              		.cpu cortex-m3
   3              		.fpu softvfp
   4              		.eabi_attribute 20, 1
   5              		.eabi_attribute 21, 1
   6              		.eabi_attribute 23, 3
   7              		.eabi_attribute 24, 1
   8              		.eabi_attribute 25, 1
   9              		.eabi_attribute 26, 1
  10              		.eabi_attribute 30, 1
  11              		.eabi_attribute 34, 1
  12              		.eabi_attribute 18, 4
  13              		.thumb
  14              		.file	"main.c"
  15              		.text
  16              	.Ltext0:
  17              		.cfi_sections	.debug_frame
  18              		.section	.text.Sample_ISR_Handler,"ax",%progbits
  19              		.align	2
  20              		.global	Sample_ISR_Handler
  21              		.thumb
  22              		.thumb_func
  23              		.type	Sample_ISR_Handler, %function
  24              	Sample_ISR_Handler:
  25              	.LFB63:
  26              		.file 1 "main.c"
   1:main.c        **** /* ========================================
   2:main.c        ****  *
   3:main.c        ****  * Copyright YOUR COMPANY, THE YEAR
   4:main.c        ****  * All Rights Reserved
   5:main.c        ****  * UNPUBLISHED, LICENSED SOFTWARE.
   6:main.c        ****  *
   7:main.c        ****  * CONFIDENTIAL AND PROPRIETARY INFORMATION
   8:main.c        ****  * WHICH IS THE PROPERTY OF your company.
   9:main.c        ****  *
  10:main.c        ****  * ========================================
  11:main.c        **** */
  12:main.c        **** #include "project.h"
  13:main.c        **** #include "LiquidCrystal_I2C.h"
  14:main.c        **** #include "functions.h"
  15:main.c        **** #include "mpu6050.h"
  16:main.c        **** 
  17:main.c        **** #define MA_WINDOW 15                    // Number of samples in the moving average window.
  18:main.c        **** #define BUFFER_LEN  64u                 // Buffer length for UART rx
  19:main.c        **** 
  20:main.c        **** uint32_t Addr = 0x3F;                       // I2C address of LCD.
  21:main.c        **** long id = 1, press_id = 1;                 // Interrupt count.
  22:main.c        **** bool collect_flag = 0;                         // flag indicating when to increment interrupt count
  23:main.c        **** uint8_t RxBuffer[BUFFER_LEN] = {};            // Rx Buffer
  24:main.c        **** int msg_count = 0, rxflag = 0, bytes = 0, reset;    // UART variables
  25:main.c        **** int dummy = 0;
  26:main.c        **** float pressure_sum = 0;                     // Sum of pressure values.
  27:main.c        **** char file[11] = "test_2.txt";           // Pressure Variables
  28:main.c        **** char volume[10] = {};
  29:main.c        **** FS_FILE *fsfile;
  30:main.c        **** 
  31:main.c        **** int SD_SETUP(char* filename); //SD card setup function
ARM GAS  C:\Users\gding\AppData\Local\Temp\ccA9lwN1.s 			page 2


  32:main.c        **** 
  33:main.c        **** /* Sampling ISR */
  34:main.c        **** CY_ISR (Sample_ISR_Handler){
  27              		.loc 1 34 0
  28              		.cfi_startproc
  29              		@ args = 0, pretend = 0, frame = 0
  30              		@ frame_needed = 0, uses_anonymous_args = 0
  31              		@ link register save eliminated.
  35:main.c        ****     Sample_Timer_STATUS;                        // Clears interrupt by accessing timer status regis
  32              		.loc 1 35 0
  33 0000 024B     		ldr	r3, .L2
  34 0002 1B78     		ldrb	r3, [r3]	@ zero_extendqisi2
  36:main.c        ****     collect_flag = 1;
  35              		.loc 1 36 0
  36 0004 0122     		movs	r2, #1
  37 0006 024B     		ldr	r3, .L2+4
  38 0008 1A70     		strb	r2, [r3]
  39 000a 7047     		bx	lr
  40              	.L3:
  41              		.align	2
  42              	.L2:
  43 000c 034F0040 		.word	1073762051
  44 0010 00000000 		.word	.LANCHOR0
  45              		.cfi_endproc
  46              	.LFE63:
  47              		.size	Sample_ISR_Handler, .-Sample_ISR_Handler
  48              		.section	.text.rx_interrupt,"ax",%progbits
  49              		.align	2
  50              		.global	rx_interrupt
  51              		.thumb
  52              		.thumb_func
  53              		.type	rx_interrupt, %function
  54              	rx_interrupt:
  55              	.LFB64:
  37:main.c        **** }
  38:main.c        **** 
  39:main.c        **** CY_ISR(rx_interrupt){
  56              		.loc 1 39 0
  57              		.cfi_startproc
  58              		@ args = 0, pretend = 0, frame = 0
  59              		@ frame_needed = 0, uses_anonymous_args = 0
  60 0000 38B5     		push	{r3, r4, r5, lr}
  61              		.cfi_def_cfa_offset 16
  62              		.cfi_offset 3, -16
  63              		.cfi_offset 4, -12
  64              		.cfi_offset 5, -8
  65              		.cfi_offset 14, -4
  40:main.c        ****     while (UART_ReadRxStatus() & UART_RX_STS_FIFO_NOTEMPTY){
  66              		.loc 1 40 0
  67 0002 0EE0     		b	.L6
  68              	.L7:
  41:main.c        ****         RxBuffer[msg_count++] = UART_GetChar();
  69              		.loc 1 41 0
  70 0004 0A4C     		ldr	r4, .L9
  71 0006 6568     		ldr	r5, [r4, #4]
  72 0008 6B1C     		adds	r3, r5, #1
  73 000a 6360     		str	r3, [r4, #4]
ARM GAS  C:\Users\gding\AppData\Local\Temp\ccA9lwN1.s 			page 3


  74 000c FFF7FEFF 		bl	UART_GetChar
  75              	.LVL0:
  76 0010 2544     		add	r5, r5, r4
  77 0012 2872     		strb	r0, [r5, #8]
  42:main.c        ****         if ((msg_count - 3) >= bytes)
  78              		.loc 1 42 0
  79 0014 6368     		ldr	r3, [r4, #4]
  80 0016 033B     		subs	r3, r3, #3
  81 0018 A26C     		ldr	r2, [r4, #72]
  82 001a 9342     		cmp	r3, r2
  83 001c 01DB     		blt	.L6
  43:main.c        ****             rxflag = 1;
  84              		.loc 1 43 0
  85 001e 0122     		movs	r2, #1
  86 0020 E264     		str	r2, [r4, #76]
  87              	.L6:
  40:main.c        ****         RxBuffer[msg_count++] = UART_GetChar();
  88              		.loc 1 40 0
  89 0022 FFF7FEFF 		bl	UART_ReadRxStatus
  90              	.LVL1:
  91 0026 10F0200F 		tst	r0, #32
  92 002a EBD1     		bne	.L7
  44:main.c        ****     }
  45:main.c        **** }
  93              		.loc 1 45 0
  94 002c 38BD     		pop	{r3, r4, r5, pc}
  95              	.L10:
  96 002e 00BF     		.align	2
  97              	.L9:
  98 0030 00000000 		.word	.LANCHOR0
  99              		.cfi_endproc
 100              	.LFE64:
 101              		.size	rx_interrupt, .-rx_interrupt
 102              		.section	.text.SD_SETUP,"ax",%progbits
 103              		.align	2
 104              		.global	SD_SETUP
 105              		.thumb
 106              		.thumb_func
 107              		.type	SD_SETUP, %function
 108              	SD_SETUP:
 109              	.LFB66:
  46:main.c        **** 
  47:main.c        **** int main(void)
  48:main.c        **** {
  49:main.c        ****     CyGlobalIntEnable; /* Enable global interrupts. */
  50:main.c        ****     int num = 0, decimals = 0;                                       // ADC Voltage conversion plac
  51:main.c        ****     float voltage = 0, temp = 0, output = 0, pressure_avg = 0;       // ADC Voltage conversion vari
  52:main.c        ****     char tempbuf[70] = {};
  53:main.c        ****     int tens = 0, ones = 0;                     // digit place variables for message len of bluetoo
  54:main.c        ****     int16_t gyroX = 0, gyroY = 0;
  55:main.c        ****     
  56:main.c        ****     //I2C_Master_Start(); 
  57:main.c        ****     ADC_Start();
  58:main.c        ****     Sample_Timer_Start();                       // start timer module
  59:main.c        ****     Sample_ISR_StartEx(Sample_ISR_Handler);     // reference ISR function
  60:main.c        ****     //rx_interrupt_StartEx(rx_interrupt);
  61:main.c        ****     UART_Start();
ARM GAS  C:\Users\gding\AppData\Local\Temp\ccA9lwN1.s 			page 4


  62:main.c        ****     //LiquidCrystal_I2C_init(Addr,16,2,0);        // initialize I2C communication with LCD
  63:main.c        ****     begin();
  64:main.c        ****     
  65:main.c        ****     ADC_StartConvert();
  66:main.c        **** 
  67:main.c        ****     /* Start SD card*/
  68:main.c        ****     int SD_Result = SD_SETUP(file);
  69:main.c        ****     if (!SD_Result) {;}//LCD_print("SD_failed"); CyDelay(2000u);}
  70:main.c        ****     
  71:main.c        ****     char run_separation[40] = "RUN COMPLETED\n"
  72:main.c        ****                               "*\n"
  73:main.c        ****                               "*\n"
  74:main.c        ****                               "*\n"
  75:main.c        ****                               "NEXT RUN START\n";
  76:main.c        ****     
  77:main.c        ****     //MPU6050_init();
  78:main.c        ****     //MPU6050_initialize();
  79:main.c        ****     clear();
  80:main.c        ****     float xavg = 0, yavg = 0, zavg = 0, xsum = 0, ysum = 0, zsum = 0;
  81:main.c        ****     float xfavg = 0, yfavg = 0, zfavg = 0;
  82:main.c        ****     int xones = 0, xdecimals = 0, yones = 0, ydecimals = 0, zones = 0, zdecimals = 0;
  83:main.c        ****     for(;;)
  84:main.c        ****     {
  85:main.c        ****         CyDelay(50);
  86:main.c        ****         clear();
  87:main.c        ****         //MPU6050_getRotation(&gyroX, &gyroY, &gyroZ);
  88:main.c        ****         if (reset){
  89:main.c        ****             FS_Write(fsfile, run_separation, strlen(run_separation));
  90:main.c        ****             reset = 0;
  91:main.c        ****         }
  92:main.c        **** //        if (collect_flag){
  93:main.c        **** //            
  94:main.c        **** //            if (press_id < MA_WINDOW){
  95:main.c        **** //                    xsum += gyroX;
  96:main.c        **** //                    ysum += gyroY;
  97:main.c        **** //                    zsum += gyroZ;
  98:main.c        **** //                }
  99:main.c        **** //                else if(press_id == MA_WINDOW){
 100:main.c        **** //                    xsum += gyroX;
 101:main.c        **** //                    ysum += gyroY;
 102:main.c        **** //                    zsum += gyroZ;
 103:main.c        **** //                    xavg = xsum/MA_WINDOW;                            // compute baseline average
 104:main.c        **** //                    yavg = ysum/MA_WINDOW;
 105:main.c        **** //                    zavg = zsum/MA_WINDOW;
 106:main.c        **** //                }
 107:main.c        **** //                else{
 108:main.c        **** //                    xavg = ComputeMA(xavg, MA_WINDOW, gyroX);
 109:main.c        **** //                    yavg = ComputeMA(yavg, MA_WINDOW, gyroY);
 110:main.c        **** //                    zavg = ComputeMA(zavg, MA_WINDOW, gyroZ);
 111:main.c        **** //                    xfavg = xavg / 131; yfavg = yavg / 131; zfavg = zavg / 131;
 112:main.c        **** //                    xones = xfavg; yones = yfavg; zones = zfavg;
 113:main.c        **** //                    xdecimals = ((xones - xfavg) * 1000);
 114:main.c        **** //                    ydecimals = ((yones - yfavg) * 1000);
 115:main.c        **** //                    zdecimals = ((zones - zfavg) * 1000);
 116:main.c        **** //                   
 117:main.c        **** //                        //sprintf(tempbuf, "%d.%d -%d.%d %d.%d\n", xones, xdecimals, yones, (ydec
 118:main.c        **** //             
ARM GAS  C:\Users\gding\AppData\Local\Temp\ccA9lwN1.s 			page 5


 119:main.c        **** //                    sprintf(tempbuf, "%d.%d %d.%d %d.%d\n", xones, xdecimals, yones, ydecimals, z
 120:main.c        **** //                    FS_Write(fsfile, tempbuf, strlen(tempbuf));                            
 121:main.c        **** //                }
 122:main.c        **** //            press_id++;
 123:main.c        **** //            collect_flag = 0;
 124:main.c        **** //        }
 125:main.c        ****         if(ADC_IsEndConversion(ADC_RETURN_STATUS))
 126:main.c        ****         {
 127:main.c        ****             output = ADC_GetResult32();
 128:main.c        **** 
 129:main.c        ****             voltage = output * (3.32 / 4096);
 130:main.c        ****             if(collect_flag == 1){
 131:main.c        ****                 if (press_id < MA_WINDOW){
 132:main.c        ****                     pressure_sum += voltage;     
 133:main.c        ****                 }
 134:main.c        ****                 else if(press_id == MA_WINDOW){
 135:main.c        ****                     pressure_sum += voltage;
 136:main.c        ****                     pressure_avg = pressure_sum/MA_WINDOW;                            // compute ba
 137:main.c        ****                 }
 138:main.c        ****                 else{
 139:main.c        ****                     pressure_avg = ComputeMA(pressure_avg, MA_WINDOW, voltage);
 140:main.c        ****                     num = pressure_avg;
 141:main.c        ****                     temp = pressure_avg - num;
 142:main.c        ****                     decimals = temp * 10000;
 143:main.c        ****                     char sdbuf[60] = {};
 144:main.c        **** 
 145:main.c        ****                         sprintf(sdbuf, "(%ld)pressure: %d.%04d, %d\n", press_id, \
 146:main.c        ****                                             num, decimals, (int16)output); // log pressure data
 147:main.c        ****                         FS_Write(fsfile, sdbuf, strlen(sdbuf));                            
 148:main.c        ****                 }
 149:main.c        ****                 collect_flag = 0;
 150:main.c        ****                 press_id++;
 151:main.c        ****             }  
 152:main.c        ****         }
 153:main.c        ****         if (msg_count >= 2){
 154:main.c        ****             tens = RxBuffer[0] - 48;
 155:main.c        ****             ones = RxBuffer[1] - 48;
 156:main.c        ****             bytes = (tens * 10) + ones;
 157:main.c        ****         } 
 158:main.c        ****         
 159:main.c        ****         if(rxflag) {
 160:main.c        ****             uint8_to_char(RxBuffer, &tempbuf[0], 20);
 161:main.c        ****             dummy = BT_Process(&tempbuf[3], bytes, &reset);
 162:main.c        ****             
 163:main.c        ****             msg_count = 0; bytes = 0;
 164:main.c        ****             memset(RxBuffer, 0, BUFFER_LEN);
 165:main.c        ****             memset(tempbuf, 0, 20);
 166:main.c        ****             rxflag = 0;
 167:main.c        ****         }
 168:main.c        ****     }
 169:main.c        **** }
 170:main.c        **** 
 171:main.c        **** int SD_SETUP(char* filename){
 110              		.loc 1 171 0
 111              		.cfi_startproc
 112              		@ args = 0, pretend = 0, frame = 0
 113              		@ frame_needed = 0, uses_anonymous_args = 0
ARM GAS  C:\Users\gding\AppData\Local\Temp\ccA9lwN1.s 			page 6


 114              	.LVL2:
 115 0000 38B5     		push	{r3, r4, r5, lr}
 116              		.cfi_def_cfa_offset 16
 117              		.cfi_offset 3, -16
 118              		.cfi_offset 4, -12
 119              		.cfi_offset 5, -8
 120              		.cfi_offset 14, -4
 121 0002 0546     		mov	r5, r0
 122              	.LVL3:
 172:main.c        **** int success = 1;
 173:main.c        ****       FS_Init();
 123              		.loc 1 173 0
 124 0004 FFF7FEFF 		bl	FS_Init
 125              	.LVL4:
 174:main.c        ****             FS_Mount(volume);
 126              		.loc 1 174 0
 127 0008 2F4C     		ldr	r4, .L20
 128 000a 2046     		mov	r0, r4
 129 000c FFF7FEFF 		bl	FS_Mount
 130              	.LVL5:
 175:main.c        ****             if(0 != FS_GetVolumeName(0u, volume, 9u))
 131              		.loc 1 175 0
 132 0010 0020     		movs	r0, #0
 133 0012 2146     		mov	r1, r4
 134 0014 0922     		movs	r2, #9
 135 0016 FFF7FEFF 		bl	FS_GetVolumeName
 136              	.LVL6:
 137 001a 70B1     		cbz	r0, .L12
 176:main.c        ****                 /* Getting volume name succeeded so prompt it on the LCD */
 177:main.c        ****                 LCD_print("Sd vol succeed");
 138              		.loc 1 177 0
 139 001c 2B48     		ldr	r0, .L20+4
 140 001e FFF7FEFF 		bl	LCD_print
 141              	.LVL7:
 178:main.c        ****             else{
 179:main.c        ****                 LCD_print("Sd vol failed");
 180:main.c        ****                 success = 0;
 181:main.c        ****                 return success;
 182:main.c        ****             }
 183:main.c        ****             CyDelay(500u);
 142              		.loc 1 183 0
 143 0022 4FF4FA70 		mov	r0, #500
 144 0026 FFF7FEFF 		bl	CyDelay
 145              	.LVL8:
 184:main.c        ****             clear();
 146              		.loc 1 184 0
 147 002a FFF7FEFF 		bl	clear
 148              	.LVL9:
 185:main.c        ****             if(0 == FS_FormatSD(volume))
 149              		.loc 1 185 0
 150 002e 2648     		ldr	r0, .L20
 151 0030 FFF7FEFF 		bl	FS_FormatSD
 152              	.LVL10:
 153 0034 0446     		mov	r4, r0
 154 0036 50B1     		cbz	r0, .L13
 155 0038 04E0     		b	.L18
 156              	.L12:
ARM GAS  C:\Users\gding\AppData\Local\Temp\ccA9lwN1.s 			page 7


 157 003a 0446     		mov	r4, r0
 179:main.c        ****                 success = 0;
 158              		.loc 1 179 0
 159 003c 2448     		ldr	r0, .L20+8
 160 003e FFF7FEFF 		bl	LCD_print
 161              	.LVL11:
 181:main.c        ****             }
 162              		.loc 1 181 0
 163 0042 3FE0     		b	.L15
 164              	.LVL12:
 165              	.L18:
 186:main.c        ****                 ;
 187:main.c        ****             else{
 188:main.c        ****                 LCD_print("format Failed");
 166              		.loc 1 188 0
 167 0044 2348     		ldr	r0, .L20+12
 168 0046 FFF7FEFF 		bl	LCD_print
 169              	.LVL13:
 189:main.c        ****                 success = 0;
 190:main.c        ****                 return success;
 170              		.loc 1 190 0
 171 004a 0024     		movs	r4, #0
 172 004c 3AE0     		b	.L15
 173              	.LVL14:
 174              	.L13:
 191:main.c        ****             }
 192:main.c        ****             
 193:main.c        ****             CyDelay(500u);
 175              		.loc 1 193 0
 176 004e 4FF4FA70 		mov	r0, #500
 177 0052 FFF7FEFF 		bl	CyDelay
 178              	.LVL15:
 194:main.c        ****             clear();
 179              		.loc 1 194 0
 180 0056 FFF7FEFF 		bl	clear
 181              	.LVL16:
 195:main.c        ****             
 196:main.c        ****             fsfile = FS_FOpen(filename, "w");
 182              		.loc 1 196 0
 183 005a 2846     		mov	r0, r5
 184 005c 1E49     		ldr	r1, .L20+16
 185 005e FFF7FEFF 		bl	FS_FOpen
 186              	.LVL17:
 187 0062 1E4B     		ldr	r3, .L20+20
 188 0064 1860     		str	r0, [r3]
 197:main.c        ****             if(fsfile)
 189              		.loc 1 197 0
 190 0066 50B3     		cbz	r0, .L16
 198:main.c        ****             {
 199:main.c        ****                 /* Indicate successful file creation message */
 200:main.c        ****                 LCD_print("File ");
 191              		.loc 1 200 0
 192 0068 1D48     		ldr	r0, .L20+24
 193 006a FFF7FEFF 		bl	LCD_print
 194              	.LVL18:
 201:main.c        ****                 LCD_print("was opened");
 195              		.loc 1 201 0
ARM GAS  C:\Users\gding\AppData\Local\Temp\ccA9lwN1.s 			page 8


 196 006e 1D48     		ldr	r0, .L20+28
 197 0070 FFF7FEFF 		bl	LCD_print
 198              	.LVL19:
 202:main.c        ****                 /* Need some delay to indicate output on the LCD */
 203:main.c        ****                 CyDelay(500u);
 199              		.loc 1 203 0
 200 0074 4FF4FA70 		mov	r0, #500
 201 0078 FFF7FEFF 		bl	CyDelay
 202              	.LVL20:
 204:main.c        ****                 clear();
 203              		.loc 1 204 0
 204 007c FFF7FEFF 		bl	clear
 205              	.LVL21:
 205:main.c        ****                 
 206:main.c        ****                 if(0 != FS_Write(fsfile, filename, strlen(filename))) 
 206              		.loc 1 206 0
 207 0080 2846     		mov	r0, r5
 208 0082 FFF7FEFF 		bl	strlen
 209              	.LVL22:
 210 0086 0246     		mov	r2, r0
 211 0088 144B     		ldr	r3, .L20+20
 212 008a 1868     		ldr	r0, [r3]
 213 008c 2946     		mov	r1, r5
 214 008e FFF7FEFF 		bl	FS_Write
 215              	.LVL23:
 216 0092 70B1     		cbz	r0, .L17
 207:main.c        ****                     /* Inditate that data was written to a file */
 208:main.c        ****                     LCD_print("written to file");
 217              		.loc 1 208 0
 218 0094 1448     		ldr	r0, .L20+32
 219 0096 FFF7FEFF 		bl	LCD_print
 220              	.LVL24:
 209:main.c        ****                 else {
 210:main.c        ****                     LCD_print("Failed to write");
 211:main.c        ****                     success = 0;
 212:main.c        ****                     clear();
 213:main.c        ****                     return success;
 214:main.c        ****                 }
 215:main.c        ****                 CyDelay(500u);
 221              		.loc 1 215 0
 222 009a 4FF4FA70 		mov	r0, #500
 223 009e FFF7FEFF 		bl	CyDelay
 224              	.LVL25:
 216:main.c        ****             }
 217:main.c        ****             else{
 218:main.c        ****                 LCD_print("file not created");
 219:main.c        ****                 success = 0;
 220:main.c        ****                 return success;
 221:main.c        ****             }
 222:main.c        ****         FS_Write(fsfile, "\n------------\n", 14);
 225              		.loc 1 222 0
 226 00a2 0E4B     		ldr	r3, .L20+20
 227 00a4 1868     		ldr	r0, [r3]
 228 00a6 1149     		ldr	r1, .L20+36
 229 00a8 0E22     		movs	r2, #14
 230 00aa FFF7FEFF 		bl	FS_Write
 231              	.LVL26:
ARM GAS  C:\Users\gding\AppData\Local\Temp\ccA9lwN1.s 			page 9


 223:main.c        **** return success;
 232              		.loc 1 223 0
 233 00ae 0124     		movs	r4, #1
 234 00b0 08E0     		b	.L15
 235              	.L17:
 210:main.c        ****                     success = 0;
 236              		.loc 1 210 0
 237 00b2 0F48     		ldr	r0, .L20+40
 238 00b4 FFF7FEFF 		bl	LCD_print
 239              	.LVL27:
 212:main.c        ****                     return success;
 240              		.loc 1 212 0
 241 00b8 FFF7FEFF 		bl	clear
 242              	.LVL28:
 213:main.c        ****                 }
 243              		.loc 1 213 0
 244 00bc 02E0     		b	.L15
 245              	.LVL29:
 246              	.L16:
 218:main.c        ****                 success = 0;
 247              		.loc 1 218 0
 248 00be 0D48     		ldr	r0, .L20+44
 249 00c0 FFF7FEFF 		bl	LCD_print
 250              	.LVL30:
 251              	.L15:
 224:main.c        **** }
 252              		.loc 1 224 0
 253 00c4 2046     		mov	r0, r4
 254 00c6 38BD     		pop	{r3, r4, r5, pc}
 255              	.LVL31:
 256              	.L21:
 257              		.align	2
 258              	.L20:
 259 00c8 50000000 		.word	.LANCHOR0+80
 260 00cc 00000000 		.word	.LC0
 261 00d0 10000000 		.word	.LC1
 262 00d4 20000000 		.word	.LC2
 263 00d8 30000000 		.word	.LC3
 264 00dc 00000000 		.word	fsfile
 265 00e0 34000000 		.word	.LC4
 266 00e4 3C000000 		.word	.LC5
 267 00e8 48000000 		.word	.LC6
 268 00ec 58000000 		.word	.LC7
 269 00f0 68000000 		.word	.LC8
 270 00f4 78000000 		.word	.LC9
 271              		.cfi_endproc
 272              	.LFE66:
 273              		.size	SD_SETUP, .-SD_SETUP
 274              		.global	__aeabi_i2f
 275              		.global	__aeabi_f2d
 276              		.global	__aeabi_dmul
 277              		.global	__aeabi_d2f
 278              		.global	__aeabi_fadd
 279              		.global	__aeabi_fdiv
 280              		.global	__aeabi_f2iz
 281              		.global	__aeabi_fsub
 282              		.global	__aeabi_fmul
ARM GAS  C:\Users\gding\AppData\Local\Temp\ccA9lwN1.s 			page 10


 283              		.section	.text.main,"ax",%progbits
 284              		.align	2
 285              		.global	main
 286              		.thumb
 287              		.thumb_func
 288              		.type	main, %function
 289              	main:
 290              	.LFB65:
  48:main.c        ****     CyGlobalIntEnable; /* Enable global interrupts. */
 291              		.loc 1 48 0
 292              		.cfi_startproc
 293              		@ args = 0, pretend = 0, frame = 176
 294              		@ frame_needed = 0, uses_anonymous_args = 0
 295 0000 F0B5     		push	{r4, r5, r6, r7, lr}
 296              		.cfi_def_cfa_offset 20
 297              		.cfi_offset 4, -20
 298              		.cfi_offset 5, -16
 299              		.cfi_offset 6, -12
 300              		.cfi_offset 7, -8
 301              		.cfi_offset 14, -4
 302 0002 AFB0     		sub	sp, sp, #188
 303              		.cfi_def_cfa_offset 208
  49:main.c        ****     int num = 0, decimals = 0;                                       // ADC Voltage conversion plac
 304              		.loc 1 49 0
 305              	@ 49 "main.c" 1
 306 0004 62B6     		CPSIE   i
 307              	@ 0 "" 2
 308              	.LVL32:
  52:main.c        ****     int tens = 0, ones = 0;                     // digit place variables for message len of bluetoo
 309              		.loc 1 52 0
 310              		.thumb
 311 0006 1CA8     		add	r0, sp, #112
 312 0008 0021     		movs	r1, #0
 313 000a 4622     		movs	r2, #70
 314 000c FFF7FEFF 		bl	memset
 315              	.LVL33:
  57:main.c        ****     Sample_Timer_Start();                       // start timer module
 316              		.loc 1 57 0
 317 0010 FFF7FEFF 		bl	ADC_Start
 318              	.LVL34:
  58:main.c        ****     Sample_ISR_StartEx(Sample_ISR_Handler);     // reference ISR function
 319              		.loc 1 58 0
 320 0014 FFF7FEFF 		bl	Sample_Timer_Start
 321              	.LVL35:
  59:main.c        ****     //rx_interrupt_StartEx(rx_interrupt);
 322              		.loc 1 59 0
 323 0018 6348     		ldr	r0, .L32+8
 324 001a FFF7FEFF 		bl	Sample_ISR_StartEx
 325              	.LVL36:
  61:main.c        ****     //LiquidCrystal_I2C_init(Addr,16,2,0);        // initialize I2C communication with LCD
 326              		.loc 1 61 0
 327 001e FFF7FEFF 		bl	UART_Start
 328              	.LVL37:
  63:main.c        ****     
 329              		.loc 1 63 0
 330 0022 FFF7FEFF 		bl	begin
 331              	.LVL38:
ARM GAS  C:\Users\gding\AppData\Local\Temp\ccA9lwN1.s 			page 11


  65:main.c        **** 
 332              		.loc 1 65 0
 333 0026 FFF7FEFF 		bl	ADC_StartConvert
 334              	.LVL39:
  68:main.c        ****     if (!SD_Result) {;}//LCD_print("SD_failed"); CyDelay(2000u);}
 335              		.loc 1 68 0
 336 002a 6048     		ldr	r0, .L32+12
 337 002c FFF7FEFF 		bl	SD_SETUP
 338              	.LVL40:
  71:main.c        ****                               "*\n"
 339              		.loc 1 71 0
 340 0030 12AC     		add	r4, sp, #72
 341 0032 5F4D     		ldr	r5, .L32+16
 342 0034 0FCD     		ldmia	r5!, {r0, r1, r2, r3}
 343 0036 0FC4     		stmia	r4!, {r0, r1, r2, r3}
 344 0038 0FCD     		ldmia	r5!, {r0, r1, r2, r3}
 345 003a 0FC4     		stmia	r4!, {r0, r1, r2, r3}
 346 003c 2B68     		ldr	r3, [r5]
 347 003e 2360     		str	r3, [r4]
 348 0040 0023     		movs	r3, #0
 349 0042 1B93     		str	r3, [sp, #108]
  79:main.c        ****     float xavg = 0, yavg = 0, zavg = 0, xsum = 0, ysum = 0, zsum = 0;
 350              		.loc 1 79 0
 351 0044 FFF7FEFF 		bl	clear
 352              	.LVL41:
  51:main.c        ****     char tempbuf[70] = {};
 353              		.loc 1 51 0
 354 0048 0025     		movs	r5, #0
 355              	.LVL42:
 356              	.L23:
  85:main.c        ****         clear();
 357              		.loc 1 85 0
 358 004a 3220     		movs	r0, #50
 359 004c FFF7FEFF 		bl	CyDelay
 360              	.LVL43:
  86:main.c        ****         //MPU6050_getRotation(&gyroX, &gyroY, &gyroZ);
 361              		.loc 1 86 0
 362 0050 FFF7FEFF 		bl	clear
 363              	.LVL44:
  88:main.c        ****             FS_Write(fsfile, run_separation, strlen(run_separation));
 364              		.loc 1 88 0
 365 0054 574B     		ldr	r3, .L32+20
 366 0056 1B68     		ldr	r3, [r3]
 367 0058 5BB1     		cbz	r3, .L24
  89:main.c        ****             reset = 0;
 368              		.loc 1 89 0
 369 005a 12A8     		add	r0, sp, #72
 370 005c FFF7FEFF 		bl	strlen
 371              	.LVL45:
 372 0060 0246     		mov	r2, r0
 373 0062 554B     		ldr	r3, .L32+24
 374 0064 1868     		ldr	r0, [r3]
 375 0066 12A9     		add	r1, sp, #72
 376 0068 FFF7FEFF 		bl	FS_Write
 377              	.LVL46:
  90:main.c        ****         }
 378              		.loc 1 90 0
ARM GAS  C:\Users\gding\AppData\Local\Temp\ccA9lwN1.s 			page 12


 379 006c 0022     		movs	r2, #0
 380 006e 514B     		ldr	r3, .L32+20
 381 0070 1A60     		str	r2, [r3]
 382              	.L24:
 125:main.c        ****         {
 383              		.loc 1 125 0
 384 0072 0120     		movs	r0, #1
 385 0074 FFF7FEFF 		bl	ADC_IsEndConversion
 386              	.LVL47:
 387 0078 0028     		cmp	r0, #0
 388 007a 5FD0     		beq	.L25
 127:main.c        **** 
 389              		.loc 1 127 0
 390 007c FFF7FEFF 		bl	ADC_GetResult32
 391              	.LVL48:
 392 0080 FFF7FEFF 		bl	__aeabi_i2f
 393              	.LVL49:
 394 0084 0446     		mov	r4, r0
 395              	.LVL50:
 129:main.c        ****             if(collect_flag == 1){
 396              		.loc 1 129 0
 397 0086 FFF7FEFF 		bl	__aeabi_f2d
 398              	.LVL51:
 399 008a 45A3     		adr	r3, .L32
 400 008c D3E90023 		ldrd	r2, [r3]
 401 0090 FFF7FEFF 		bl	__aeabi_dmul
 402              	.LVL52:
 403 0094 FFF7FEFF 		bl	__aeabi_d2f
 404              	.LVL53:
 405 0098 0246     		mov	r2, r0
 406              	.LVL54:
 130:main.c        ****                 if (press_id < MA_WINDOW){
 407              		.loc 1 130 0
 408 009a 484B     		ldr	r3, .L32+28
 409 009c 1B78     		ldrb	r3, [r3]	@ zero_extendqisi2
 410 009e 002B     		cmp	r3, #0
 411 00a0 4CD0     		beq	.L25
 131:main.c        ****                     pressure_sum += voltage;     
 412              		.loc 1 131 0
 413 00a2 424B     		ldr	r3, .L32+12
 414 00a4 DB68     		ldr	r3, [r3, #12]
 415 00a6 0E2B     		cmp	r3, #14
 416 00a8 06DC     		bgt	.L26
 132:main.c        ****                 }
 417              		.loc 1 132 0
 418 00aa 444C     		ldr	r4, .L32+28
 419              	.LVL55:
 420 00ac E06D     		ldr	r0, [r4, #92]	@ float
 421              	.LVL56:
 422 00ae 1146     		mov	r1, r2
 423 00b0 FFF7FEFF 		bl	__aeabi_fadd
 424              	.LVL57:
 425 00b4 E065     		str	r0, [r4, #92]	@ float
 426 00b6 3AE0     		b	.L27
 427              	.LVL58:
 428              	.L26:
 134:main.c        ****                     pressure_sum += voltage;
ARM GAS  C:\Users\gding\AppData\Local\Temp\ccA9lwN1.s 			page 13


 429              		.loc 1 134 0
 430 00b8 0F2B     		cmp	r3, #15
 431 00ba 09D1     		bne	.L28
 135:main.c        ****                     pressure_avg = pressure_sum/MA_WINDOW;                            // compute ba
 432              		.loc 1 135 0
 433 00bc 3F4C     		ldr	r4, .L32+28
 434              	.LVL59:
 435 00be E16D     		ldr	r1, [r4, #92]	@ float
 436 00c0 FFF7FEFF 		bl	__aeabi_fadd
 437              	.LVL60:
 438 00c4 E065     		str	r0, [r4, #92]	@ float
 136:main.c        ****                 }
 439              		.loc 1 136 0
 440 00c6 3E49     		ldr	r1, .L32+32
 441 00c8 FFF7FEFF 		bl	__aeabi_fdiv
 442              	.LVL61:
 443 00cc 0546     		mov	r5, r0
 444              	.LVL62:
 445 00ce 2EE0     		b	.L27
 446              	.LVL63:
 447              	.L28:
 448              	.LBB2:
 139:main.c        ****                     num = pressure_avg;
 449              		.loc 1 139 0
 450 00d0 2846     		mov	r0, r5
 451              	.LVL64:
 452 00d2 0F21     		movs	r1, #15
 453 00d4 FFF7FEFF 		bl	ComputeMA
 454              	.LVL65:
 455 00d8 0546     		mov	r5, r0
 456              	.LVL66:
 140:main.c        ****                     temp = pressure_avg - num;
 457              		.loc 1 140 0
 458 00da FFF7FEFF 		bl	__aeabi_f2iz
 459              	.LVL67:
 460 00de 0646     		mov	r6, r0
 461              	.LVL68:
 141:main.c        ****                     decimals = temp * 10000;
 462              		.loc 1 141 0
 463 00e0 FFF7FEFF 		bl	__aeabi_i2f
 464              	.LVL69:
 465 00e4 0146     		mov	r1, r0
 466 00e6 2846     		mov	r0, r5
 467 00e8 FFF7FEFF 		bl	__aeabi_fsub
 468              	.LVL70:
 142:main.c        ****                     char sdbuf[60] = {};
 469              		.loc 1 142 0
 470 00ec 3549     		ldr	r1, .L32+36
 471 00ee FFF7FEFF 		bl	__aeabi_fmul
 472              	.LVL71:
 473 00f2 FFF7FEFF 		bl	__aeabi_f2iz
 474              	.LVL72:
 475 00f6 0746     		mov	r7, r0
 476              	.LVL73:
 143:main.c        **** 
 477              		.loc 1 143 0
 478 00f8 03A8     		add	r0, sp, #12
ARM GAS  C:\Users\gding\AppData\Local\Temp\ccA9lwN1.s 			page 14


 479              	.LVL74:
 480 00fa 0021     		movs	r1, #0
 481 00fc 3C22     		movs	r2, #60
 482 00fe FFF7FEFF 		bl	memset
 483              	.LVL75:
 146:main.c        ****                         FS_Write(fsfile, sdbuf, strlen(sdbuf));                            
 484              		.loc 1 146 0
 485 0102 2046     		mov	r0, r4
 486 0104 FFF7FEFF 		bl	__aeabi_f2iz
 487              	.LVL76:
 145:main.c        ****                                             num, decimals, (int16)output); // log pressure data
 488              		.loc 1 145 0
 489 0108 284B     		ldr	r3, .L32+12
 490 010a DA68     		ldr	r2, [r3, #12]
 491 010c 0097     		str	r7, [sp]
 492 010e 00B2     		sxth	r0, r0
 493 0110 0190     		str	r0, [sp, #4]
 494 0112 03A8     		add	r0, sp, #12
 495 0114 2C49     		ldr	r1, .L32+40
 496 0116 3346     		mov	r3, r6
 497 0118 FFF7FEFF 		bl	sprintf
 498              	.LVL77:
 147:main.c        ****                 }
 499              		.loc 1 147 0
 500 011c 03A8     		add	r0, sp, #12
 501 011e FFF7FEFF 		bl	strlen
 502              	.LVL78:
 503 0122 0246     		mov	r2, r0
 504 0124 244B     		ldr	r3, .L32+24
 505 0126 1868     		ldr	r0, [r3]
 506 0128 03A9     		add	r1, sp, #12
 507 012a FFF7FEFF 		bl	FS_Write
 508              	.LVL79:
 509              	.L27:
 510              	.LBE2:
 149:main.c        ****                 press_id++;
 511              		.loc 1 149 0
 512 012e 0022     		movs	r2, #0
 513 0130 224B     		ldr	r3, .L32+28
 514 0132 1A70     		strb	r2, [r3]
 150:main.c        ****             }  
 515              		.loc 1 150 0
 516 0134 1D4A     		ldr	r2, .L32+12
 517 0136 D368     		ldr	r3, [r2, #12]
 518 0138 0133     		adds	r3, r3, #1
 519 013a D360     		str	r3, [r2, #12]
 520              	.L25:
 153:main.c        ****             tens = RxBuffer[0] - 48;
 521              		.loc 1 153 0
 522 013c 1F4B     		ldr	r3, .L32+28
 523 013e 5B68     		ldr	r3, [r3, #4]
 524 0140 012B     		cmp	r3, #1
 525 0142 09DD     		ble	.L29
 154:main.c        ****             ones = RxBuffer[1] - 48;
 526              		.loc 1 154 0
 527 0144 1D49     		ldr	r1, .L32+28
 528 0146 0B7A     		ldrb	r3, [r1, #8]	@ zero_extendqisi2
ARM GAS  C:\Users\gding\AppData\Local\Temp\ccA9lwN1.s 			page 15


 529 0148 303B     		subs	r3, r3, #48
 530              	.LVL80:
 155:main.c        ****             bytes = (tens * 10) + ones;
 531              		.loc 1 155 0
 532 014a 4A7A     		ldrb	r2, [r1, #9]	@ zero_extendqisi2
 533 014c 303A     		subs	r2, r2, #48
 534              	.LVL81:
 156:main.c        ****         } 
 535              		.loc 1 156 0
 536 014e 03EB8303 		add	r3, r3, r3, lsl #2
 537              	.LVL82:
 538 0152 5B00     		lsls	r3, r3, #1
 539 0154 1344     		add	r3, r3, r2
 540 0156 8B64     		str	r3, [r1, #72]
 541              	.LVL83:
 542              	.L29:
 159:main.c        ****             uint8_to_char(RxBuffer, &tempbuf[0], 20);
 543              		.loc 1 159 0
 544 0158 184B     		ldr	r3, .L32+28
 545 015a DB6C     		ldr	r3, [r3, #76]
 546 015c 002B     		cmp	r3, #0
 547 015e 3FF474AF 		beq	.L23
 160:main.c        ****             dummy = BT_Process(&tempbuf[3], bytes, &reset);
 548              		.loc 1 160 0
 549 0162 164E     		ldr	r6, .L32+28
 550 0164 06F10807 		add	r7, r6, #8
 551 0168 3846     		mov	r0, r7
 552 016a 1CA9     		add	r1, sp, #112
 553 016c 1422     		movs	r2, #20
 554 016e FFF7FEFF 		bl	uint8_to_char
 555              	.LVL84:
 161:main.c        ****             
 556              		.loc 1 161 0
 557 0172 0DF17300 		add	r0, sp, #115
 558 0176 B16C     		ldr	r1, [r6, #72]
 559 0178 0E4A     		ldr	r2, .L32+20
 560 017a FFF7FEFF 		bl	BT_Process
 561              	.LVL85:
 562 017e 3066     		str	r0, [r6, #96]
 163:main.c        ****             memset(RxBuffer, 0, BUFFER_LEN);
 563              		.loc 1 163 0
 564 0180 0024     		movs	r4, #0
 565 0182 7460     		str	r4, [r6, #4]
 566 0184 B464     		str	r4, [r6, #72]
 164:main.c        ****             memset(tempbuf, 0, 20);
 567              		.loc 1 164 0
 568 0186 3846     		mov	r0, r7
 569 0188 2146     		mov	r1, r4
 570 018a 4022     		movs	r2, #64
 571 018c FFF7FEFF 		bl	memset
 572              	.LVL86:
 165:main.c        ****             rxflag = 0;
 573              		.loc 1 165 0
 574 0190 1C94     		str	r4, [sp, #112]
 575 0192 1D94     		str	r4, [sp, #116]
 576 0194 1E94     		str	r4, [sp, #120]
 577 0196 1F94     		str	r4, [sp, #124]
ARM GAS  C:\Users\gding\AppData\Local\Temp\ccA9lwN1.s 			page 16


 578 0198 2094     		str	r4, [sp, #128]
 166:main.c        ****         }
 579              		.loc 1 166 0
 580 019a F464     		str	r4, [r6, #76]
 581 019c 55E7     		b	.L23
 582              	.L33:
 583 019e 00BF     		.align	3
 584              	.L32:
 585 01a0 8FC2F528 		.word	687194767
 586 01a4 5C8F4A3F 		.word	1061850972
 587 01a8 00000000 		.word	Sample_ISR_Handler
 588 01ac 00000000 		.word	.LANCHOR1
 589 01b0 00000000 		.word	.LANCHOR2
 590 01b4 00000000 		.word	reset
 591 01b8 00000000 		.word	fsfile
 592 01bc 00000000 		.word	.LANCHOR0
 593 01c0 00007041 		.word	1097859072
 594 01c4 00401C46 		.word	1176256512
 595 01c8 8C000000 		.word	.LC11
 596              		.cfi_endproc
 597              	.LFE65:
 598              		.size	main, .-main
 599              		.comm	fsfile,4,4
 600              		.global	volume
 601              		.global	file
 602              		.global	pressure_sum
 603              		.global	dummy
 604              		.comm	reset,4,4
 605              		.global	bytes
 606              		.global	rxflag
 607              		.global	msg_count
 608              		.global	RxBuffer
 609              		.global	collect_flag
 610              		.global	press_id
 611              		.global	id
 612              		.global	Addr
 613              		.comm	buffer,22,4
 614              		.comm	devAddr,1,1
 615 01cc AFF30080 		.section	.rodata
 616              		.align	2
 617              		.set	.LANCHOR2,. + 0
 618              	.LC10:
 619 0000 52554E20 		.ascii	"RUN COMPLETED\012*\012*\012*\012NEXT RUN START\012\000"
 619      434F4D50 
 619      4C455445 
 619      440A2A0A 
 619      2A0A2A0A 
 620 0024 00000000 		.space	4
 621              		.data
 622              		.align	2
 623              		.set	.LANCHOR1,. + 0
 624              		.type	file, %object
 625              		.size	file, 11
 626              	file:
 627 0000 74657374 		.ascii	"test_2.txt\000"
 627      5F322E74 
 627      787400
ARM GAS  C:\Users\gding\AppData\Local\Temp\ccA9lwN1.s 			page 17


 628 000b 00       		.space	1
 629              		.type	press_id, %object
 630              		.size	press_id, 4
 631              	press_id:
 632 000c 01000000 		.word	1
 633              		.type	id, %object
 634              		.size	id, 4
 635              	id:
 636 0010 01000000 		.word	1
 637              		.type	Addr, %object
 638              		.size	Addr, 4
 639              	Addr:
 640 0014 3F000000 		.word	63
 641              		.section	.rodata.str1.4,"aMS",%progbits,1
 642              		.align	2
 643              	.LC0:
 644 0000 53642076 		.ascii	"Sd vol succeed\000"
 644      6F6C2073 
 644      75636365 
 644      656400
 645 000f 00       		.space	1
 646              	.LC1:
 647 0010 53642076 		.ascii	"Sd vol failed\000"
 647      6F6C2066 
 647      61696C65 
 647      6400
 648 001e 0000     		.space	2
 649              	.LC2:
 650 0020 666F726D 		.ascii	"format Failed\000"
 650      61742046 
 650      61696C65 
 650      6400
 651 002e 0000     		.space	2
 652              	.LC3:
 653 0030 7700     		.ascii	"w\000"
 654 0032 0000     		.space	2
 655              	.LC4:
 656 0034 46696C65 		.ascii	"File \000"
 656      2000
 657 003a 0000     		.space	2
 658              	.LC5:
 659 003c 77617320 		.ascii	"was opened\000"
 659      6F70656E 
 659      656400
 660 0047 00       		.space	1
 661              	.LC6:
 662 0048 77726974 		.ascii	"written to file\000"
 662      74656E20 
 662      746F2066 
 662      696C6500 
 663              	.LC7:
 664 0058 0A2D2D2D 		.ascii	"\012------------\012\000"
 664      2D2D2D2D 
 664      2D2D2D2D 
 664      2D0A00
 665 0067 00       		.space	1
 666              	.LC8:
ARM GAS  C:\Users\gding\AppData\Local\Temp\ccA9lwN1.s 			page 18


 667 0068 4661696C 		.ascii	"Failed to write\000"
 667      65642074 
 667      6F207772 
 667      69746500 
 668              	.LC9:
 669 0078 66696C65 		.ascii	"file not created\000"
 669      206E6F74 
 669      20637265 
 669      61746564 
 669      00
 670 0089 000000   		.space	3
 671              	.LC11:
 672 008c 28256C64 		.ascii	"(%ld)pressure: %d.%04d, %d\012\000"
 672      29707265 
 672      73737572 
 672      653A2025 
 672      642E2530 
 673              		.bss
 674              		.align	2
 675              		.set	.LANCHOR0,. + 0
 676              		.type	collect_flag, %object
 677              		.size	collect_flag, 1
 678              	collect_flag:
 679 0000 00       		.space	1
 680 0001 000000   		.space	3
 681              		.type	msg_count, %object
 682              		.size	msg_count, 4
 683              	msg_count:
 684 0004 00000000 		.space	4
 685              		.type	RxBuffer, %object
 686              		.size	RxBuffer, 64
 687              	RxBuffer:
 688 0008 00000000 		.space	64
 688      00000000 
 688      00000000 
 688      00000000 
 688      00000000 
 689              		.type	bytes, %object
 690              		.size	bytes, 4
 691              	bytes:
 692 0048 00000000 		.space	4
 693              		.type	rxflag, %object
 694              		.size	rxflag, 4
 695              	rxflag:
 696 004c 00000000 		.space	4
 697              		.type	volume, %object
 698              		.size	volume, 10
 699              	volume:
 700 0050 00000000 		.space	10
 700      00000000 
 700      0000
 701 005a 0000     		.space	2
 702              		.type	pressure_sum, %object
 703              		.size	pressure_sum, 4
 704              	pressure_sum:
 705 005c 00000000 		.space	4
 706              		.type	dummy, %object
ARM GAS  C:\Users\gding\AppData\Local\Temp\ccA9lwN1.s 			page 19


 707              		.size	dummy, 4
 708              	dummy:
 709 0060 00000000 		.space	4
 710              		.text
 711              	.Letext0:
 712              		.file 2 "c:\\program files (x86)\\cypress\\psoc creator\\4.0\\psoc creator\\import\\gnu\\arm\\4.9.
 713              		.file 3 "c:\\program files (x86)\\cypress\\psoc creator\\4.0\\psoc creator\\import\\gnu\\arm\\4.9.
 714              		.file 4 "Generated_Source\\PSoC5/cytypes.h"
 715              		.file 5 "c:\\program files (x86)\\cypress\\psoc creator\\4.0\\psoc creator\\import\\gnu\\arm\\4.9.
 716              		.file 6 "..\\emFile_V322c\\Code\\Include\\PSoC5/FS_Types.h"
 717              		.file 7 "Generated_Source\\PSoC5/core_cm3.h"
 718              		.file 8 "mpu6050.h"
 719              		.file 9 "Generated_Source\\PSoC5/UART.h"
 720              		.file 10 "..\\emFile_V322c\\Code\\Include\\PSoC5/FS.h"
 721              		.file 11 "LiquidCrystal_I2C.h"
 722              		.file 12 "Generated_Source\\PSoC5/CyLib.h"
 723              		.file 13 "c:\\program files (x86)\\cypress\\psoc creator\\4.0\\psoc creator\\import\\gnu\\arm\\4.9
 724              		.file 14 "functions.h"
 725              		.file 15 "c:\\program files (x86)\\cypress\\psoc creator\\4.0\\psoc creator\\import\\gnu\\arm\\4.9
 726              		.file 16 "Generated_Source\\PSoC5/ADC.h"
 727              		.file 17 "Generated_Source\\PSoC5/Sample_Timer.h"
 728              		.file 18 "Generated_Source\\PSoC5/Sample_ISR.h"