ARM GAS  C:\Users\gstoll\AppData\Local\Temp\cc89Rgqj.s 			page 1


   1              		.syntax unified
   2              		.cpu cortex-m3
   3              		.fpu softvfp
   4              		.eabi_attribute 20, 1
   5              		.eabi_attribute 21, 1
   6              		.eabi_attribute 23, 3
   7              		.eabi_attribute 24, 1
   8              		.eabi_attribute 25, 1
   9              		.eabi_attribute 26, 1
  10              		.eabi_attribute 30, 1
  11              		.eabi_attribute 34, 1
  12              		.eabi_attribute 18, 4
  13              		.thumb
  14              		.file	"main.c"
  15              		.text
  16              	.Ltext0:
  17              		.cfi_sections	.debug_frame
  18              		.section	.text.Sample_ISR_Handler,"ax",%progbits
  19              		.align	2
  20              		.global	Sample_ISR_Handler
  21              		.thumb
  22              		.thumb_func
  23              		.type	Sample_ISR_Handler, %function
  24              	Sample_ISR_Handler:
  25              	.LFB63:
  26              		.file 1 "main.c"
   1:main.c        **** /* ========================================
   2:main.c        ****  *
   3:main.c        ****  * Copyright YOUR COMPANY, THE YEAR
   4:main.c        ****  * All Rights Reserved
   5:main.c        ****  * UNPUBLISHED, LICENSED SOFTWARE.
   6:main.c        ****  *
   7:main.c        ****  * CONFIDENTIAL AND PROPRIETARY INFORMATION
   8:main.c        ****  * WHICH IS THE PROPERTY OF your company.
   9:main.c        ****  *
  10:main.c        ****  * ========================================
  11:main.c        **** */
  12:main.c        **** #include "project.h"
  13:main.c        **** #include "LiquidCrystal_I2C.h"
  14:main.c        **** #include "functions.h"
  15:main.c        **** #include "mpu6050.h"
  16:main.c        **** 
  17:main.c        **** #define MA_WINDOW 15                    // Number of samples in the moving average window.
  18:main.c        **** #define BUFFER_LEN  64u                 // Buffer length for UART rx
  19:main.c        **** 
  20:main.c        **** uint32_t Addr = 0x3F;                       // I2C address of LCD.
  21:main.c        **** long id = 1, press_id = 1;                 // Interrupt count.
  22:main.c        **** bool collect_flag = 0;                         // flag indicating when to increment interrupt count
  23:main.c        **** uint8_t RxBuffer[BUFFER_LEN] = {};            // Rx Buffer
  24:main.c        **** int msg_count = 0, rxflag = 0, bytes = 0, reset;    // UART variables
  25:main.c        **** int dummy = 0;
  26:main.c        **** float pressure_sum = 0;                     // Sum of pressure values.
  27:main.c        **** char file[11] = "test_2.txt";           // Pressure Variables
  28:main.c        **** char volume[10] = {};
  29:main.c        **** FS_FILE *fsfile;
  30:main.c        **** 
  31:main.c        **** int SD_SETUP(char* filename); //SD card setup function
ARM GAS  C:\Users\gstoll\AppData\Local\Temp\cc89Rgqj.s 			page 2


  32:main.c        **** 
  33:main.c        **** /* Sampling ISR */
  34:main.c        **** CY_ISR (Sample_ISR_Handler){
  27              		.loc 1 34 0
  28              		.cfi_startproc
  29              		@ args = 0, pretend = 0, frame = 0
  30              		@ frame_needed = 0, uses_anonymous_args = 0
  31              		@ link register save eliminated.
  35:main.c        ****     Sample_Timer_STATUS;                        // Clears interrupt by accessing timer status regis
  32              		.loc 1 35 0
  33 0000 024B     		ldr	r3, .L2
  34 0002 1B78     		ldrb	r3, [r3]	@ zero_extendqisi2
  36:main.c        ****     collect_flag = 1;
  35              		.loc 1 36 0
  36 0004 0122     		movs	r2, #1
  37 0006 024B     		ldr	r3, .L2+4
  38 0008 1A70     		strb	r2, [r3]
  39 000a 7047     		bx	lr
  40              	.L3:
  41              		.align	2
  42              	.L2:
  43 000c 034F0040 		.word	1073762051
  44 0010 00000000 		.word	.LANCHOR0
  45              		.cfi_endproc
  46              	.LFE63:
  47              		.size	Sample_ISR_Handler, .-Sample_ISR_Handler
  48              		.section	.text.rx_interrupt,"ax",%progbits
  49              		.align	2
  50              		.global	rx_interrupt
  51              		.thumb
  52              		.thumb_func
  53              		.type	rx_interrupt, %function
  54              	rx_interrupt:
  55              	.LFB64:
  37:main.c        **** }
  38:main.c        **** 
  39:main.c        **** CY_ISR(rx_interrupt){
  56              		.loc 1 39 0
  57              		.cfi_startproc
  58              		@ args = 0, pretend = 0, frame = 0
  59              		@ frame_needed = 0, uses_anonymous_args = 0
  60 0000 38B5     		push	{r3, r4, r5, lr}
  61              		.cfi_def_cfa_offset 16
  62              		.cfi_offset 3, -16
  63              		.cfi_offset 4, -12
  64              		.cfi_offset 5, -8
  65              		.cfi_offset 14, -4
  40:main.c        ****     while (UART_ReadRxStatus() & UART_RX_STS_FIFO_NOTEMPTY){
  66              		.loc 1 40 0
  67 0002 0EE0     		b	.L6
  68              	.L7:
  41:main.c        ****         RxBuffer[msg_count++] = UART_GetChar();
  69              		.loc 1 41 0
  70 0004 0A4C     		ldr	r4, .L9
  71 0006 6568     		ldr	r5, [r4, #4]
  72 0008 6B1C     		adds	r3, r5, #1
  73 000a 6360     		str	r3, [r4, #4]
ARM GAS  C:\Users\gstoll\AppData\Local\Temp\cc89Rgqj.s 			page 3


  74 000c FFF7FEFF 		bl	UART_GetChar
  75              	.LVL0:
  76 0010 2544     		add	r5, r5, r4
  77 0012 2872     		strb	r0, [r5, #8]
  42:main.c        ****         if ((msg_count - 3) >= bytes)
  78              		.loc 1 42 0
  79 0014 6368     		ldr	r3, [r4, #4]
  80 0016 033B     		subs	r3, r3, #3
  81 0018 A26C     		ldr	r2, [r4, #72]
  82 001a 9342     		cmp	r3, r2
  83 001c 01DB     		blt	.L6
  43:main.c        ****             rxflag = 1;
  84              		.loc 1 43 0
  85 001e 0122     		movs	r2, #1
  86 0020 E264     		str	r2, [r4, #76]
  87              	.L6:
  40:main.c        ****         RxBuffer[msg_count++] = UART_GetChar();
  88              		.loc 1 40 0
  89 0022 FFF7FEFF 		bl	UART_ReadRxStatus
  90              	.LVL1:
  91 0026 10F0200F 		tst	r0, #32
  92 002a EBD1     		bne	.L7
  44:main.c        ****     }
  45:main.c        **** }
  93              		.loc 1 45 0
  94 002c 38BD     		pop	{r3, r4, r5, pc}
  95              	.L10:
  96 002e 00BF     		.align	2
  97              	.L9:
  98 0030 00000000 		.word	.LANCHOR0
  99              		.cfi_endproc
 100              	.LFE64:
 101              		.size	rx_interrupt, .-rx_interrupt
 102              		.section	.text.SD_SETUP,"ax",%progbits
 103              		.align	2
 104              		.global	SD_SETUP
 105              		.thumb
 106              		.thumb_func
 107              		.type	SD_SETUP, %function
 108              	SD_SETUP:
 109              	.LFB66:
  46:main.c        **** 
  47:main.c        **** int main(void)
  48:main.c        **** {
  49:main.c        ****     CyGlobalIntEnable; /* Enable global interrupts. */
  50:main.c        ****     int num = 0, decimals = 0;                                       // ADC Voltage conversion plac
  51:main.c        ****     float voltage = 0, temp = 0, output = 0, pressure_avg = 0;       // ADC Voltage conversion vari
  52:main.c        ****     char tempbuf[70] = {};
  53:main.c        ****     int tens = 0, ones = 0;                     // digit place variables for message len of bluetoo
  54:main.c        ****     int16_t gyroX = 0, gyroY = 0;
  55:main.c        ****     int16_t az = 0;
  56:main.c        ****     long sum = 0;
  57:main.c        ****     int average = 0;
  58:main.c        ****     
  59:main.c        ****     I2C_Master_Start(); 
  60:main.c        ****     ADC_Start();
  61:main.c        ****     Sample_Timer_Start();                       // start timer module
ARM GAS  C:\Users\gstoll\AppData\Local\Temp\cc89Rgqj.s 			page 4


  62:main.c        ****     Sample_ISR_StartEx(Sample_ISR_Handler);     // reference ISR function
  63:main.c        ****    //rx_interrupt_StartEx(rx_interrupt);
  64:main.c        ****     UART_Start();
  65:main.c        ****     LiquidCrystal_I2C_init(Addr,16,2,0);        // initialize I2C communication with LCD
  66:main.c        ****     begin();
  67:main.c        ****     
  68:main.c        ****     ADC_StartConvert();
  69:main.c        **** 
  70:main.c        ****     /* Start SD card*/
  71:main.c        ****     int SD_Result = SD_SETUP(file);
  72:main.c        ****     if (!SD_Result) {;}//LCD_print("SD_failed"); CyDelay(2000u);}
  73:main.c        ****     
  74:main.c        ****     char run_separation[40] = "RUN COMPLETED\n"
  75:main.c        ****                               "*\n"
  76:main.c        ****                               "*\n"
  77:main.c        ****                               "*\n"
  78:main.c        ****                               "NEXT RUN START\n";
  79:main.c        ****     
  80:main.c        ****     MPU6050_init();
  81:main.c        ****     MPU6050_initialize();
  82:main.c        ****     clear();
  83:main.c        ****     LCD_print("Ready");
  84:main.c        ****     float xavg = 0, yavg = 0, zavg = 0, xsum = 0, ysum = 0, zsum = 0;
  85:main.c        ****     float xfavg = 0, yfavg = 0, zfavg = 0;
  86:main.c        ****     int xones = 0, xdecimals = 0, yones = 0, ydecimals = 0, zones = 0, zdecimals = 0;
  87:main.c        ****     for(;;)
  88:main.c        ****     {
  89:main.c        ****         clear();
  90:main.c        ****         //MPU6050_getRotation(&gyroX, &gyroY, &gyroZ);
  91:main.c        ****         if (reset){
  92:main.c        ****             FS_Write(fsfile, run_separation, strlen(run_separation));
  93:main.c        ****             reset = 0;
  94:main.c        ****         }
  95:main.c        **** //        if (collect_flag){
  96:main.c        **** //            
  97:main.c        **** //            if (press_id < MA_WINDOW){
  98:main.c        **** //                    xsum += gyroX;
  99:main.c        **** //                    ysum += gyroY;
 100:main.c        **** //                    zsum += gyroZ;
 101:main.c        **** //                }
 102:main.c        **** //                else if(press_id == MA_WINDOW){
 103:main.c        **** //                    xsum += gyroX;
 104:main.c        **** //                    ysum += gyroY;
 105:main.c        **** //                    zsum += gyroZ;
 106:main.c        **** //                    xavg = xsum/MA_WINDOW;                            // compute baseline average
 107:main.c        **** //                    yavg = ysum/MA_WINDOW;
 108:main.c        **** //                    zavg = zsum/MA_WINDOW;
 109:main.c        **** //                }
 110:main.c        **** //                else{
 111:main.c        **** //                    xavg = ComputeMA(xavg, MA_WINDOW, gyroX);
 112:main.c        **** //                    yavg = ComputeMA(yavg, MA_WINDOW, gyroY);
 113:main.c        **** //                    zavg = ComputeMA(zavg, MA_WINDOW, gyroZ);
 114:main.c        **** //                    xfavg = xavg / 131; yfavg = yavg / 131; zfavg = zavg / 131;
 115:main.c        **** //                    xones = xfavg; yones = yfavg; zones = zfavg;
 116:main.c        **** //                    xdecimals = ((xones - xfavg) * 1000);
 117:main.c        **** //                    ydecimals = ((yones - yfavg) * 1000);
 118:main.c        **** //                    zdecimals = ((zones - zfavg) * 1000);
ARM GAS  C:\Users\gstoll\AppData\Local\Temp\cc89Rgqj.s 			page 5


 119:main.c        **** //                   
 120:main.c        **** //                        //sprintf(tempbuf, "%d.%d -%d.%d %d.%d\n", xones, xdecimals, yones, (ydec
 121:main.c        **** //             
 122:main.c        **** //                    sprintf(tempbuf, "%d.%d %d.%d %d.%d\n", xones, xdecimals, yones, ydecimals, z
 123:main.c        **** //                    FS_Write(fsfile, tempbuf, strlen(tempbuf));                            
 124:main.c        **** //                }
 125:main.c        **** //            press_id++;
 126:main.c        **** //            collect_flag = 0;
 127:main.c        **** //        }
 128:main.c        ****         az = MPU6050_getAccelerationZ();
 129:main.c        ****         if(ADC_IsEndConversion(ADC_RETURN_STATUS))
 130:main.c        ****         {
 131:main.c        ****             if(collect_flag == 1){
 132:main.c        ****             output = ADC_GetResult32();
 133:main.c        **** 
 134:main.c        ****             voltage = output * (3.32 / 65536);
 135:main.c        ****             
 136:main.c        ****                 if (press_id < MA_WINDOW){
 137:main.c        ****                     sum += az;
 138:main.c        ****                     pressure_sum += voltage;     
 139:main.c        ****                 }
 140:main.c        ****                 else if(press_id == MA_WINDOW){
 141:main.c        ****                     pressure_sum += voltage;
 142:main.c        ****                     sum += az;
 143:main.c        ****                     average = sum/MA_WINDOW;
 144:main.c        ****                     pressure_avg = pressure_sum/MA_WINDOW;                            // compute ba
 145:main.c        ****                 }
 146:main.c        ****                 else{
 147:main.c        ****                     pressure_avg = ComputeMA(pressure_avg, MA_WINDOW, voltage);
 148:main.c        ****                     average = ComputeMA(average, MA_WINDOW, az);
 149:main.c        ****                     num = pressure_avg;
 150:main.c        ****                     temp = pressure_avg - num;
 151:main.c        ****                     decimals = temp * 10000;
 152:main.c        ****                     char sdbuf[60] = {};
 153:main.c        **** 
 154:main.c        ****                         sprintf(sdbuf, "%d.%04d, %d, %d\n",num, decimals, (int16)output, average); 
 155:main.c        ****                         FS_Write(fsfile, sdbuf, strlen(sdbuf)); 
 156:main.c        ****                 }
 157:main.c        ****                 collect_flag = 0;
 158:main.c        ****                 press_id++;
 159:main.c        ****             }  
 160:main.c        ****         }
 161:main.c        **** //        if (msg_count >= 2){
 162:main.c        **** //            tens = RxBuffer[0] - 48;
 163:main.c        **** //            ones = RxBuffer[1] - 48;
 164:main.c        **** //            bytes = (tens * 10) + ones;
 165:main.c        **** //        } 
 166:main.c        ****         
 167:main.c        **** //        if(rxflag) {
 168:main.c        **** //            uint8_to_char(RxBuffer, &tempbuf[0], 20);
 169:main.c        **** //            dummy = BT_Process(&tempbuf[3], bytes, &reset);
 170:main.c        **** //            
 171:main.c        **** //            msg_count = 0; bytes = 0;
 172:main.c        **** //            memset(RxBuffer, 0, BUFFER_LEN);
 173:main.c        **** //            memset(tempbuf, 0, 20);
 174:main.c        **** //            rxflag = 0;
 175:main.c        **** //        }
ARM GAS  C:\Users\gstoll\AppData\Local\Temp\cc89Rgqj.s 			page 6


 176:main.c        ****     }
 177:main.c        **** }
 178:main.c        **** 
 179:main.c        **** int SD_SETUP(char* filename){
 110              		.loc 1 179 0
 111              		.cfi_startproc
 112              		@ args = 0, pretend = 0, frame = 0
 113              		@ frame_needed = 0, uses_anonymous_args = 0
 114              	.LVL2:
 115 0000 38B5     		push	{r3, r4, r5, lr}
 116              		.cfi_def_cfa_offset 16
 117              		.cfi_offset 3, -16
 118              		.cfi_offset 4, -12
 119              		.cfi_offset 5, -8
 120              		.cfi_offset 14, -4
 121 0002 0546     		mov	r5, r0
 122              	.LVL3:
 180:main.c        **** int success = 1;
 181:main.c        ****       FS_Init();
 123              		.loc 1 181 0
 124 0004 FFF7FEFF 		bl	FS_Init
 125              	.LVL4:
 182:main.c        ****             FS_Mount(volume);
 126              		.loc 1 182 0
 127 0008 314C     		ldr	r4, .L20
 128 000a 2046     		mov	r0, r4
 129 000c FFF7FEFF 		bl	FS_Mount
 130              	.LVL5:
 183:main.c        ****             if(0 != FS_GetVolumeName(0u, volume, 9u))
 131              		.loc 1 183 0
 132 0010 0020     		movs	r0, #0
 133 0012 2146     		mov	r1, r4
 134 0014 0922     		movs	r2, #9
 135 0016 FFF7FEFF 		bl	FS_GetVolumeName
 136              	.LVL6:
 137 001a 70B1     		cbz	r0, .L12
 184:main.c        ****                 /* Getting volume name succeeded so prompt it on the LCD */
 185:main.c        ****                 LCD_print("Sd vol succeed");
 138              		.loc 1 185 0
 139 001c 2D48     		ldr	r0, .L20+4
 140 001e FFF7FEFF 		bl	LCD_print
 141              	.LVL7:
 186:main.c        ****             else{
 187:main.c        ****                 LCD_print("Sd vol failed");
 188:main.c        ****                 success = 0;
 189:main.c        ****                 return success;
 190:main.c        ****             }
 191:main.c        ****             CyDelay(500u);
 142              		.loc 1 191 0
 143 0022 4FF4FA70 		mov	r0, #500
 144 0026 FFF7FEFF 		bl	CyDelay
 145              	.LVL8:
 192:main.c        ****             clear();
 146              		.loc 1 192 0
 147 002a FFF7FEFF 		bl	clear
 148              	.LVL9:
 193:main.c        ****             if(0 == FS_FormatSD(volume))
ARM GAS  C:\Users\gstoll\AppData\Local\Temp\cc89Rgqj.s 			page 7


 149              		.loc 1 193 0
 150 002e 2848     		ldr	r0, .L20
 151 0030 FFF7FEFF 		bl	FS_FormatSD
 152              	.LVL10:
 153 0034 0446     		mov	r4, r0
 154 0036 70B1     		cbz	r0, .L13
 155 0038 04E0     		b	.L18
 156              	.L12:
 157 003a 0446     		mov	r4, r0
 187:main.c        ****                 success = 0;
 158              		.loc 1 187 0
 159 003c 2648     		ldr	r0, .L20+8
 160 003e FFF7FEFF 		bl	LCD_print
 161              	.LVL11:
 189:main.c        ****             }
 162              		.loc 1 189 0
 163 0042 43E0     		b	.L15
 164              	.LVL12:
 165              	.L18:
 194:main.c        ****                 ;
 195:main.c        ****             else{
 196:main.c        ****                 LCD_print("format Failed");
 166              		.loc 1 196 0
 167 0044 2548     		ldr	r0, .L20+12
 168 0046 FFF7FEFF 		bl	LCD_print
 169              	.LVL13:
 197:main.c        ****                 CyDelay(2000u);
 170              		.loc 1 197 0
 171 004a 4FF4FA60 		mov	r0, #2000
 172 004e FFF7FEFF 		bl	CyDelay
 173              	.LVL14:
 198:main.c        ****                 success = 0;
 199:main.c        ****                 return success;
 174              		.loc 1 199 0
 175 0052 0024     		movs	r4, #0
 176 0054 3AE0     		b	.L15
 177              	.LVL15:
 178              	.L13:
 200:main.c        ****             }
 201:main.c        ****             
 202:main.c        ****             CyDelay(500u);
 179              		.loc 1 202 0
 180 0056 4FF4FA70 		mov	r0, #500
 181 005a FFF7FEFF 		bl	CyDelay
 182              	.LVL16:
 203:main.c        ****             clear();
 183              		.loc 1 203 0
 184 005e FFF7FEFF 		bl	clear
 185              	.LVL17:
 204:main.c        ****             
 205:main.c        ****             fsfile = FS_FOpen(filename, "w");
 186              		.loc 1 205 0
 187 0062 2846     		mov	r0, r5
 188 0064 1E49     		ldr	r1, .L20+16
 189 0066 FFF7FEFF 		bl	FS_FOpen
 190              	.LVL18:
 191 006a 1E4B     		ldr	r3, .L20+20
ARM GAS  C:\Users\gstoll\AppData\Local\Temp\cc89Rgqj.s 			page 8


 192 006c 1860     		str	r0, [r3]
 206:main.c        ****             if(fsfile)
 193              		.loc 1 206 0
 194 006e 50B3     		cbz	r0, .L16
 207:main.c        ****             {
 208:main.c        ****                 /* Indicate successful file creation message */
 209:main.c        ****                 LCD_print("File ");
 195              		.loc 1 209 0
 196 0070 1D48     		ldr	r0, .L20+24
 197 0072 FFF7FEFF 		bl	LCD_print
 198              	.LVL19:
 210:main.c        ****                 LCD_print("was opened");
 199              		.loc 1 210 0
 200 0076 1D48     		ldr	r0, .L20+28
 201 0078 FFF7FEFF 		bl	LCD_print
 202              	.LVL20:
 211:main.c        ****                 /* Need some delay to indicate output on the LCD */
 212:main.c        ****                 CyDelay(500u);
 203              		.loc 1 212 0
 204 007c 4FF4FA70 		mov	r0, #500
 205 0080 FFF7FEFF 		bl	CyDelay
 206              	.LVL21:
 213:main.c        ****                 clear();
 207              		.loc 1 213 0
 208 0084 FFF7FEFF 		bl	clear
 209              	.LVL22:
 214:main.c        ****                 
 215:main.c        ****                 if(0 != FS_Write(fsfile, filename, strlen(filename))) 
 210              		.loc 1 215 0
 211 0088 2846     		mov	r0, r5
 212 008a FFF7FEFF 		bl	strlen
 213              	.LVL23:
 214 008e 0246     		mov	r2, r0
 215 0090 144B     		ldr	r3, .L20+20
 216 0092 1868     		ldr	r0, [r3]
 217 0094 2946     		mov	r1, r5
 218 0096 FFF7FEFF 		bl	FS_Write
 219              	.LVL24:
 220 009a 70B1     		cbz	r0, .L17
 216:main.c        ****                     /* Inditate that data was written to a file */
 217:main.c        ****                     LCD_print("written to file");
 221              		.loc 1 217 0
 222 009c 1448     		ldr	r0, .L20+32
 223 009e FFF7FEFF 		bl	LCD_print
 224              	.LVL25:
 218:main.c        ****                 else {
 219:main.c        ****                     LCD_print("Failed to write");
 220:main.c        ****                     success = 0;
 221:main.c        ****                     clear();
 222:main.c        ****                     return success;
 223:main.c        ****                 }
 224:main.c        ****                 CyDelay(500u);
 225              		.loc 1 224 0
 226 00a2 4FF4FA70 		mov	r0, #500
 227 00a6 FFF7FEFF 		bl	CyDelay
 228              	.LVL26:
 225:main.c        ****             }
ARM GAS  C:\Users\gstoll\AppData\Local\Temp\cc89Rgqj.s 			page 9


 226:main.c        ****             else{
 227:main.c        ****                 LCD_print("file not created");
 228:main.c        ****                 success = 0;
 229:main.c        ****                 return success;
 230:main.c        ****             }
 231:main.c        ****         FS_Write(fsfile, "\n------------\n", 14);
 229              		.loc 1 231 0
 230 00aa 0E4B     		ldr	r3, .L20+20
 231 00ac 1868     		ldr	r0, [r3]
 232 00ae 1149     		ldr	r1, .L20+36
 233 00b0 0E22     		movs	r2, #14
 234 00b2 FFF7FEFF 		bl	FS_Write
 235              	.LVL27:
 232:main.c        **** return success;
 236              		.loc 1 232 0
 237 00b6 0124     		movs	r4, #1
 238 00b8 08E0     		b	.L15
 239              	.L17:
 219:main.c        ****                     success = 0;
 240              		.loc 1 219 0
 241 00ba 0F48     		ldr	r0, .L20+40
 242 00bc FFF7FEFF 		bl	LCD_print
 243              	.LVL28:
 221:main.c        ****                     return success;
 244              		.loc 1 221 0
 245 00c0 FFF7FEFF 		bl	clear
 246              	.LVL29:
 222:main.c        ****                 }
 247              		.loc 1 222 0
 248 00c4 02E0     		b	.L15
 249              	.LVL30:
 250              	.L16:
 227:main.c        ****                 success = 0;
 251              		.loc 1 227 0
 252 00c6 0D48     		ldr	r0, .L20+44
 253 00c8 FFF7FEFF 		bl	LCD_print
 254              	.LVL31:
 255              	.L15:
 233:main.c        **** }
 256              		.loc 1 233 0
 257 00cc 2046     		mov	r0, r4
 258 00ce 38BD     		pop	{r3, r4, r5, pc}
 259              	.LVL32:
 260              	.L21:
 261              		.align	2
 262              	.L20:
 263 00d0 50000000 		.word	.LANCHOR0+80
 264 00d4 00000000 		.word	.LC0
 265 00d8 10000000 		.word	.LC1
 266 00dc 20000000 		.word	.LC2
 267 00e0 30000000 		.word	.LC3
 268 00e4 00000000 		.word	fsfile
 269 00e8 34000000 		.word	.LC4
 270 00ec 3C000000 		.word	.LC5
 271 00f0 48000000 		.word	.LC6
 272 00f4 58000000 		.word	.LC7
 273 00f8 68000000 		.word	.LC8
ARM GAS  C:\Users\gstoll\AppData\Local\Temp\cc89Rgqj.s 			page 10


 274 00fc 78000000 		.word	.LC9
 275              		.cfi_endproc
 276              	.LFE66:
 277              		.size	SD_SETUP, .-SD_SETUP
 278              		.global	__aeabi_i2f
 279              		.global	__aeabi_f2d
 280              		.global	__aeabi_dmul
 281              		.global	__aeabi_d2f
 282              		.global	__aeabi_fadd
 283              		.global	__aeabi_fdiv
 284              		.global	__aeabi_f2iz
 285              		.global	__aeabi_fsub
 286              		.global	__aeabi_fmul
 287              		.section	.text.main,"ax",%progbits
 288              		.align	2
 289              		.global	main
 290              		.thumb
 291              		.thumb_func
 292              		.type	main, %function
 293              	main:
 294              	.LFB65:
  48:main.c        ****     CyGlobalIntEnable; /* Enable global interrupts. */
 295              		.loc 1 48 0
 296              		.cfi_startproc
 297              		@ args = 0, pretend = 0, frame = 104
 298              		@ frame_needed = 0, uses_anonymous_args = 0
 299 0000 2DE9F043 		push	{r4, r5, r6, r7, r8, r9, lr}
 300              		.cfi_def_cfa_offset 28
 301              		.cfi_offset 4, -28
 302              		.cfi_offset 5, -24
 303              		.cfi_offset 6, -20
 304              		.cfi_offset 7, -16
 305              		.cfi_offset 8, -12
 306              		.cfi_offset 9, -8
 307              		.cfi_offset 14, -4
 308 0004 9DB0     		sub	sp, sp, #116
 309              		.cfi_def_cfa_offset 144
  49:main.c        ****     int num = 0, decimals = 0;                                       // ADC Voltage conversion plac
 310              		.loc 1 49 0
 311              	@ 49 "main.c" 1
 312 0006 62B6     		CPSIE   i
 313              	@ 0 "" 2
 314              	.LVL33:
  59:main.c        ****     ADC_Start();
 315              		.loc 1 59 0
 316              		.thumb
 317 0008 FFF7FEFF 		bl	I2C_Master_Start
 318              	.LVL34:
  60:main.c        ****     Sample_Timer_Start();                       // start timer module
 319              		.loc 1 60 0
 320 000c FFF7FEFF 		bl	ADC_Start
 321              	.LVL35:
  61:main.c        ****     Sample_ISR_StartEx(Sample_ISR_Handler);     // reference ISR function
 322              		.loc 1 61 0
 323 0010 FFF7FEFF 		bl	Sample_Timer_Start
 324              	.LVL36:
  62:main.c        ****    //rx_interrupt_StartEx(rx_interrupt);
ARM GAS  C:\Users\gstoll\AppData\Local\Temp\cc89Rgqj.s 			page 11


 325              		.loc 1 62 0
 326 0014 6048     		ldr	r0, .L30+8
 327 0016 FFF7FEFF 		bl	Sample_ISR_StartEx
 328              	.LVL37:
  64:main.c        ****     LiquidCrystal_I2C_init(Addr,16,2,0);        // initialize I2C communication with LCD
 329              		.loc 1 64 0
 330 001a FFF7FEFF 		bl	UART_Start
 331              	.LVL38:
  65:main.c        ****     begin();
 332              		.loc 1 65 0
 333 001e 5F4C     		ldr	r4, .L30+12
 334 0020 54F8040B 		ldr	r0, [r4], #4
 335 0024 C0B2     		uxtb	r0, r0
 336 0026 1021     		movs	r1, #16
 337 0028 0222     		movs	r2, #2
 338 002a 0023     		movs	r3, #0
 339 002c FFF7FEFF 		bl	LiquidCrystal_I2C_init
 340              	.LVL39:
  66:main.c        ****     
 341              		.loc 1 66 0
 342 0030 FFF7FEFF 		bl	begin
 343              	.LVL40:
  68:main.c        **** 
 344              		.loc 1 68 0
 345 0034 FFF7FEFF 		bl	ADC_StartConvert
 346              	.LVL41:
  71:main.c        ****     if (!SD_Result) {;}//LCD_print("SD_failed"); CyDelay(2000u);}
 347              		.loc 1 71 0
 348 0038 2046     		mov	r0, r4
 349 003a FFF7FEFF 		bl	SD_SETUP
 350              	.LVL42:
  74:main.c        ****                               "*\n"
 351              		.loc 1 74 0
 352 003e 12AC     		add	r4, sp, #72
 353 0040 574D     		ldr	r5, .L30+16
 354 0042 0FCD     		ldmia	r5!, {r0, r1, r2, r3}
 355 0044 0FC4     		stmia	r4!, {r0, r1, r2, r3}
 356 0046 0FCD     		ldmia	r5!, {r0, r1, r2, r3}
 357 0048 0FC4     		stmia	r4!, {r0, r1, r2, r3}
 358 004a 2B68     		ldr	r3, [r5]
 359 004c 2360     		str	r3, [r4]
 360 004e 0025     		movs	r5, #0
 361 0050 1B95     		str	r5, [sp, #108]
  80:main.c        ****     MPU6050_initialize();
 362              		.loc 1 80 0
 363 0052 FFF7FEFF 		bl	MPU6050_init
 364              	.LVL43:
  81:main.c        ****     clear();
 365              		.loc 1 81 0
 366 0056 FFF7FEFF 		bl	MPU6050_initialize
 367              	.LVL44:
  82:main.c        ****     LCD_print("Ready");
 368              		.loc 1 82 0
 369 005a FFF7FEFF 		bl	clear
 370              	.LVL45:
  83:main.c        ****     float xavg = 0, yavg = 0, zavg = 0, xsum = 0, ysum = 0, zsum = 0;
 371              		.loc 1 83 0
ARM GAS  C:\Users\gstoll\AppData\Local\Temp\cc89Rgqj.s 			page 12


 372 005e 5148     		ldr	r0, .L30+20
 373 0060 FFF7FEFF 		bl	LCD_print
 374              	.LVL46:
  57:main.c        ****     
 375              		.loc 1 57 0
 376 0064 2E46     		mov	r6, r5
  51:main.c        ****     char tempbuf[70] = {};
 377              		.loc 1 51 0
 378 0066 0027     		movs	r7, #0
 379              	.LVL47:
 380              	.L23:
  89:main.c        ****         //MPU6050_getRotation(&gyroX, &gyroY, &gyroZ);
 381              		.loc 1 89 0
 382 0068 FFF7FEFF 		bl	clear
 383              	.LVL48:
  91:main.c        ****             FS_Write(fsfile, run_separation, strlen(run_separation));
 384              		.loc 1 91 0
 385 006c 4E4B     		ldr	r3, .L30+24
 386 006e 1B68     		ldr	r3, [r3]
 387 0070 5BB1     		cbz	r3, .L24
  92:main.c        ****             reset = 0;
 388              		.loc 1 92 0
 389 0072 12A8     		add	r0, sp, #72
 390 0074 FFF7FEFF 		bl	strlen
 391              	.LVL49:
 392 0078 0246     		mov	r2, r0
 393 007a 4C4B     		ldr	r3, .L30+28
 394 007c 1868     		ldr	r0, [r3]
 395 007e 12A9     		add	r1, sp, #72
 396 0080 FFF7FEFF 		bl	FS_Write
 397              	.LVL50:
  93:main.c        ****         }
 398              		.loc 1 93 0
 399 0084 0022     		movs	r2, #0
 400 0086 484B     		ldr	r3, .L30+24
 401 0088 1A60     		str	r2, [r3]
 402              	.L24:
 128:main.c        ****         if(ADC_IsEndConversion(ADC_RETURN_STATUS))
 403              		.loc 1 128 0
 404 008a FFF7FEFF 		bl	MPU6050_getAccelerationZ
 405              	.LVL51:
 406 008e 0446     		mov	r4, r0
 407              	.LVL52:
 129:main.c        ****         {
 408              		.loc 1 129 0
 409 0090 0120     		movs	r0, #1
 410 0092 FFF7FEFF 		bl	ADC_IsEndConversion
 411              	.LVL53:
 412 0096 0028     		cmp	r0, #0
 413 0098 E6D0     		beq	.L23
 131:main.c        ****             output = ADC_GetResult32();
 414              		.loc 1 131 0
 415 009a 454B     		ldr	r3, .L30+32
 416 009c 1B78     		ldrb	r3, [r3]	@ zero_extendqisi2
 417 009e 002B     		cmp	r3, #0
 418 00a0 E2D0     		beq	.L23
 132:main.c        **** 
ARM GAS  C:\Users\gstoll\AppData\Local\Temp\cc89Rgqj.s 			page 13


 419              		.loc 1 132 0
 420 00a2 FFF7FEFF 		bl	ADC_GetResult32
 421              	.LVL54:
 422 00a6 FFF7FEFF 		bl	__aeabi_i2f
 423              	.LVL55:
 424 00aa 8046     		mov	r8, r0
 425              	.LVL56:
 134:main.c        ****             
 426              		.loc 1 134 0
 427 00ac FFF7FEFF 		bl	__aeabi_f2d
 428              	.LVL57:
 429 00b0 37A3     		adr	r3, .L30
 430 00b2 D3E90023 		ldrd	r2, [r3]
 431 00b6 FFF7FEFF 		bl	__aeabi_dmul
 432              	.LVL58:
 433 00ba FFF7FEFF 		bl	__aeabi_d2f
 434              	.LVL59:
 435 00be 0246     		mov	r2, r0
 436              	.LVL60:
 136:main.c        ****                     sum += az;
 437              		.loc 1 136 0
 438 00c0 364B     		ldr	r3, .L30+12
 439 00c2 1B69     		ldr	r3, [r3, #16]
 440 00c4 0E2B     		cmp	r3, #14
 441 00c6 07DC     		bgt	.L26
 137:main.c        ****                     pressure_sum += voltage;     
 442              		.loc 1 137 0
 443 00c8 2544     		add	r5, r5, r4
 444              	.LVL61:
 138:main.c        ****                 }
 445              		.loc 1 138 0
 446 00ca 394C     		ldr	r4, .L30+32
 447              	.LVL62:
 448 00cc E06D     		ldr	r0, [r4, #92]	@ float
 449              	.LVL63:
 450 00ce 1146     		mov	r1, r2
 451 00d0 FFF7FEFF 		bl	__aeabi_fadd
 452              	.LVL64:
 453 00d4 E065     		str	r0, [r4, #92]	@ float
 454 00d6 51E0     		b	.L27
 455              	.LVL65:
 456              	.L26:
 140:main.c        ****                     pressure_sum += voltage;
 457              		.loc 1 140 0
 458 00d8 0F2B     		cmp	r3, #15
 459 00da 11D1     		bne	.L28
 141:main.c        ****                     sum += az;
 460              		.loc 1 141 0
 461 00dc 344E     		ldr	r6, .L30+32
 462              	.LVL66:
 463 00de F16D     		ldr	r1, [r6, #92]	@ float
 464 00e0 FFF7FEFF 		bl	__aeabi_fadd
 465              	.LVL67:
 466 00e4 F065     		str	r0, [r6, #92]	@ float
 142:main.c        ****                     average = sum/MA_WINDOW;
 467              		.loc 1 142 0
 468 00e6 2544     		add	r5, r5, r4
ARM GAS  C:\Users\gstoll\AppData\Local\Temp\cc89Rgqj.s 			page 14


 469              	.LVL68:
 143:main.c        ****                     pressure_avg = pressure_sum/MA_WINDOW;                            // compute ba
 470              		.loc 1 143 0
 471 00e8 324E     		ldr	r6, .L30+36
 472 00ea 86FB0536 		smull	r3, r6, r6, r5
 473 00ee 7319     		adds	r3, r6, r5
 474 00f0 EE17     		asrs	r6, r5, #31
 475 00f2 C6EBE306 		rsb	r6, r6, r3, asr #3
 476              	.LVL69:
 144:main.c        ****                 }
 477              		.loc 1 144 0
 478 00f6 3049     		ldr	r1, .L30+40
 479 00f8 FFF7FEFF 		bl	__aeabi_fdiv
 480              	.LVL70:
 481 00fc 0746     		mov	r7, r0
 482              	.LVL71:
 483 00fe 3DE0     		b	.L27
 484              	.LVL72:
 485              	.L28:
 486              	.LBB2:
 147:main.c        ****                     average = ComputeMA(average, MA_WINDOW, az);
 487              		.loc 1 147 0
 488 0100 3846     		mov	r0, r7
 489              	.LVL73:
 490 0102 0F21     		movs	r1, #15
 491 0104 FFF7FEFF 		bl	ComputeMA
 492              	.LVL74:
 493 0108 0746     		mov	r7, r0
 494              	.LVL75:
 148:main.c        ****                     num = pressure_avg;
 495              		.loc 1 148 0
 496 010a 3046     		mov	r0, r6
 497              	.LVL76:
 498 010c FFF7FEFF 		bl	__aeabi_i2f
 499              	.LVL77:
 500 0110 0646     		mov	r6, r0
 501              	.LVL78:
 502 0112 2046     		mov	r0, r4
 503 0114 FFF7FEFF 		bl	__aeabi_i2f
 504              	.LVL79:
 505 0118 0246     		mov	r2, r0
 506 011a 3046     		mov	r0, r6
 507 011c 0F21     		movs	r1, #15
 508 011e FFF7FEFF 		bl	ComputeMA
 509              	.LVL80:
 510 0122 FFF7FEFF 		bl	__aeabi_f2iz
 511              	.LVL81:
 512 0126 0646     		mov	r6, r0
 513              	.LVL82:
 149:main.c        ****                     temp = pressure_avg - num;
 514              		.loc 1 149 0
 515 0128 3846     		mov	r0, r7
 516              	.LVL83:
 517 012a FFF7FEFF 		bl	__aeabi_f2iz
 518              	.LVL84:
 519 012e 8146     		mov	r9, r0
 520              	.LVL85:
ARM GAS  C:\Users\gstoll\AppData\Local\Temp\cc89Rgqj.s 			page 15


 150:main.c        ****                     decimals = temp * 10000;
 521              		.loc 1 150 0
 522 0130 FFF7FEFF 		bl	__aeabi_i2f
 523              	.LVL86:
 524 0134 0146     		mov	r1, r0
 525 0136 3846     		mov	r0, r7
 526 0138 FFF7FEFF 		bl	__aeabi_fsub
 527              	.LVL87:
 151:main.c        ****                     char sdbuf[60] = {};
 528              		.loc 1 151 0
 529 013c 1F49     		ldr	r1, .L30+44
 530 013e FFF7FEFF 		bl	__aeabi_fmul
 531              	.LVL88:
 532 0142 FFF7FEFF 		bl	__aeabi_f2iz
 533              	.LVL89:
 534 0146 0446     		mov	r4, r0
 535              	.LVL90:
 152:main.c        **** 
 536              		.loc 1 152 0
 537 0148 03A8     		add	r0, sp, #12
 538              	.LVL91:
 539 014a 0021     		movs	r1, #0
 540 014c 3C22     		movs	r2, #60
 541 014e FFF7FEFF 		bl	memset
 542              	.LVL92:
 154:main.c        ****                         FS_Write(fsfile, sdbuf, strlen(sdbuf)); 
 543              		.loc 1 154 0
 544 0152 4046     		mov	r0, r8
 545 0154 FFF7FEFF 		bl	__aeabi_f2iz
 546              	.LVL93:
 547 0158 00B2     		sxth	r0, r0
 548 015a 0090     		str	r0, [sp]
 549 015c 0196     		str	r6, [sp, #4]
 550 015e 03A8     		add	r0, sp, #12
 551 0160 1749     		ldr	r1, .L30+48
 552 0162 4A46     		mov	r2, r9
 553 0164 2346     		mov	r3, r4
 554 0166 FFF7FEFF 		bl	sprintf
 555              	.LVL94:
 155:main.c        ****                 }
 556              		.loc 1 155 0
 557 016a 03A8     		add	r0, sp, #12
 558 016c FFF7FEFF 		bl	strlen
 559              	.LVL95:
 560 0170 0246     		mov	r2, r0
 561 0172 0E4B     		ldr	r3, .L30+28
 562 0174 1868     		ldr	r0, [r3]
 563 0176 03A9     		add	r1, sp, #12
 564 0178 FFF7FEFF 		bl	FS_Write
 565              	.LVL96:
 566              	.L27:
 567              	.LBE2:
 157:main.c        ****                 press_id++;
 568              		.loc 1 157 0
 569 017c 0022     		movs	r2, #0
 570 017e 0C4B     		ldr	r3, .L30+32
 571 0180 1A70     		strb	r2, [r3]
ARM GAS  C:\Users\gstoll\AppData\Local\Temp\cc89Rgqj.s 			page 16


 158:main.c        ****             }  
 572              		.loc 1 158 0
 573 0182 064A     		ldr	r2, .L30+12
 574 0184 1369     		ldr	r3, [r2, #16]
 575 0186 0133     		adds	r3, r3, #1
 576 0188 1361     		str	r3, [r2, #16]
 577 018a 6DE7     		b	.L23
 578              	.L31:
 579 018c AFF30080 		.align	3
 580              	.L30:
 581 0190 8FC2F528 		.word	687194767
 582 0194 5C8F0A3F 		.word	1057656668
 583 0198 00000000 		.word	Sample_ISR_Handler
 584 019c 00000000 		.word	.LANCHOR1
 585 01a0 00000000 		.word	.LANCHOR2
 586 01a4 8C000000 		.word	.LC11
 587 01a8 00000000 		.word	reset
 588 01ac 00000000 		.word	fsfile
 589 01b0 00000000 		.word	.LANCHOR0
 590 01b4 89888888 		.word	-2004318071
 591 01b8 00007041 		.word	1097859072
 592 01bc 00401C46 		.word	1176256512
 593 01c0 94000000 		.word	.LC12
 594              		.cfi_endproc
 595              	.LFE65:
 596              		.size	main, .-main
 597              		.comm	fsfile,4,4
 598              		.global	volume
 599              		.global	file
 600              		.global	pressure_sum
 601              		.global	dummy
 602              		.comm	reset,4,4
 603              		.global	bytes
 604              		.global	rxflag
 605              		.global	msg_count
 606              		.global	RxBuffer
 607              		.global	collect_flag
 608              		.global	press_id
 609              		.global	id
 610              		.global	Addr
 611              		.comm	buffer,22,4
 612              		.comm	devAddr,1,1
 613 01c4 AFF30080 		.section	.rodata
 614              		.align	2
 615              		.set	.LANCHOR2,. + 0
 616              	.LC10:
 617 0000 52554E20 		.ascii	"RUN COMPLETED\012*\012*\012*\012NEXT RUN START\012\000"
 617      434F4D50 
 617      4C455445 
 617      440A2A0A 
 617      2A0A2A0A 
 618 0024 00000000 		.space	4
 619              		.data
 620              		.align	2
 621              		.set	.LANCHOR1,. + 0
 622              		.type	Addr, %object
 623              		.size	Addr, 4
ARM GAS  C:\Users\gstoll\AppData\Local\Temp\cc89Rgqj.s 			page 17


 624              	Addr:
 625 0000 3F000000 		.word	63
 626              		.type	file, %object
 627              		.size	file, 11
 628              	file:
 629 0004 74657374 		.ascii	"test_2.txt\000"
 629      5F322E74 
 629      787400
 630 000f 00       		.space	1
 631              		.type	press_id, %object
 632              		.size	press_id, 4
 633              	press_id:
 634 0010 01000000 		.word	1
 635              		.type	id, %object
 636              		.size	id, 4
 637              	id:
 638 0014 01000000 		.word	1
 639              		.section	.rodata.str1.4,"aMS",%progbits,1
 640              		.align	2
 641              	.LC0:
 642 0000 53642076 		.ascii	"Sd vol succeed\000"
 642      6F6C2073 
 642      75636365 
 642      656400
 643 000f 00       		.space	1
 644              	.LC1:
 645 0010 53642076 		.ascii	"Sd vol failed\000"
 645      6F6C2066 
 645      61696C65 
 645      6400
 646 001e 0000     		.space	2
 647              	.LC2:
 648 0020 666F726D 		.ascii	"format Failed\000"
 648      61742046 
 648      61696C65 
 648      6400
 649 002e 0000     		.space	2
 650              	.LC3:
 651 0030 7700     		.ascii	"w\000"
 652 0032 0000     		.space	2
 653              	.LC4:
 654 0034 46696C65 		.ascii	"File \000"
 654      2000
 655 003a 0000     		.space	2
 656              	.LC5:
 657 003c 77617320 		.ascii	"was opened\000"
 657      6F70656E 
 657      656400
 658 0047 00       		.space	1
 659              	.LC6:
 660 0048 77726974 		.ascii	"written to file\000"
 660      74656E20 
 660      746F2066 
 660      696C6500 
 661              	.LC7:
 662 0058 0A2D2D2D 		.ascii	"\012------------\012\000"
 662      2D2D2D2D 
ARM GAS  C:\Users\gstoll\AppData\Local\Temp\cc89Rgqj.s 			page 18


 662      2D2D2D2D 
 662      2D0A00
 663 0067 00       		.space	1
 664              	.LC8:
 665 0068 4661696C 		.ascii	"Failed to write\000"
 665      65642074 
 665      6F207772 
 665      69746500 
 666              	.LC9:
 667 0078 66696C65 		.ascii	"file not created\000"
 667      206E6F74 
 667      20637265 
 667      61746564 
 667      00
 668 0089 000000   		.space	3
 669              	.LC11:
 670 008c 52656164 		.ascii	"Ready\000"
 670      7900
 671 0092 0000     		.space	2
 672              	.LC12:
 673 0094 25642E25 		.ascii	"%d.%04d, %d, %d\012\000"
 673      3034642C 
 673      2025642C 
 673      2025640A 
 673      00
 674 00a5 000000   		.bss
 675              		.align	2
 676              		.set	.LANCHOR0,. + 0
 677              		.type	collect_flag, %object
 678              		.size	collect_flag, 1
 679              	collect_flag:
 680 0000 00       		.space	1
 681 0001 000000   		.space	3
 682              		.type	msg_count, %object
 683              		.size	msg_count, 4
 684              	msg_count:
 685 0004 00000000 		.space	4
 686              		.type	RxBuffer, %object
 687              		.size	RxBuffer, 64
 688              	RxBuffer:
 689 0008 00000000 		.space	64
 689      00000000 
 689      00000000 
 689      00000000 
 689      00000000 
 690              		.type	bytes, %object
 691              		.size	bytes, 4
 692              	bytes:
 693 0048 00000000 		.space	4
 694              		.type	rxflag, %object
 695              		.size	rxflag, 4
 696              	rxflag:
 697 004c 00000000 		.space	4
 698              		.type	volume, %object
 699              		.size	volume, 10
 700              	volume:
 701 0050 00000000 		.space	10
ARM GAS  C:\Users\gstoll\AppData\Local\Temp\cc89Rgqj.s 			page 19


 701      00000000 
 701      0000
 702 005a 0000     		.space	2
 703              		.type	pressure_sum, %object
 704              		.size	pressure_sum, 4
 705              	pressure_sum:
 706 005c 00000000 		.space	4
 707              		.type	dummy, %object
 708              		.size	dummy, 4
 709              	dummy:
 710 0060 00000000 		.space	4
 711              		.text
 712              	.Letext0:
 713              		.file 2 "c:\\program files (x86)\\cypress\\psoc creator\\4.0\\psoc creator\\import\\gnu\\arm\\4.9.
 714              		.file 3 "c:\\program files (x86)\\cypress\\psoc creator\\4.0\\psoc creator\\import\\gnu\\arm\\4.9.
 715              		.file 4 "Generated_Source\\PSoC5/cytypes.h"
 716              		.file 5 "c:\\program files (x86)\\cypress\\psoc creator\\4.0\\psoc creator\\import\\gnu\\arm\\4.9.
 717              		.file 6 "..\\emFile_V322c\\Code\\Include\\PSoC5/FS_Types.h"
 718              		.file 7 "Generated_Source\\PSoC5/core_cm3.h"
 719              		.file 8 "mpu6050.h"
 720              		.file 9 "Generated_Source\\PSoC5/UART.h"
 721              		.file 10 "..\\emFile_V322c\\Code\\Include\\PSoC5/FS.h"
 722              		.file 11 "LiquidCrystal_I2C.h"
 723              		.file 12 "Generated_Source\\PSoC5/CyLib.h"
 724              		.file 13 "c:\\program files (x86)\\cypress\\psoc creator\\4.0\\psoc creator\\import\\gnu\\arm\\4.9
 725              		.file 14 "functions.h"
 726              		.file 15 "c:\\program files (x86)\\cypress\\psoc creator\\4.0\\psoc creator\\import\\gnu\\arm\\4.9
 727              		.file 16 "Generated_Source\\PSoC5/I2C_Master.h"
 728              		.file 17 "Generated_Source\\PSoC5/ADC.h"
 729              		.file 18 "Generated_Source\\PSoC5/Sample_Timer.h"
 730              		.file 19 "Generated_Source\\PSoC5/Sample_ISR.h"